
kursach.elf:     file format elf32-littlearm

Sections:
Idx Name          Size      VMA       LMA       File off  Algn
  0 .isr_vector   0000010c  08000000  08000000  00010000  2**0
                  CONTENTS, ALLOC, LOAD, READONLY, DATA
  1 .text         000030e4  0800010c  0800010c  0001010c  2**2
                  CONTENTS, ALLOC, LOAD, READONLY, CODE
  2 .rodata       00000674  080031f0  080031f0  000131f0  2**1
                  CONTENTS, ALLOC, LOAD, READONLY, DATA
  3 .ARM.extab    00000000  08003864  08003864  0002005c  2**0
                  CONTENTS
  4 .ARM          00000000  08003864  08003864  0002005c  2**0
                  CONTENTS
  5 .preinit_array 00000000  08003864  08003864  0002005c  2**0
                  CONTENTS, ALLOC, LOAD, DATA
  6 .init_array   00000004  08003864  08003864  00013864  2**2
                  CONTENTS, ALLOC, LOAD, DATA
  7 .fini_array   00000004  08003868  08003868  00013868  2**2
                  CONTENTS, ALLOC, LOAD, DATA
  8 .data         0000005c  20000000  0800386c  00020000  2**2
                  CONTENTS, ALLOC, LOAD, DATA
  9 .bss          00002354  2000005c  080038c8  0002005c  2**2
                  ALLOC
 10 ._user_heap_stack 00000600  200023b0  080038c8  000223b0  2**0
                  ALLOC
 11 .ARM.attributes 00000029  00000000  00000000  0002005c  2**0
                  CONTENTS, READONLY
 12 .comment      00000050  00000000  00000000  00020085  2**0
                  CONTENTS, READONLY
 13 .debug_frame  0000006c  00000000  00000000  000200d8  2**2
                  CONTENTS, READONLY, DEBUGGING, OCTETS

Disassembly of section .text:

0800010c <__do_global_dtors_aux>:
 800010c:	b510      	push	{r4, lr}
 800010e:	4c05      	ldr	r4, [pc, #20]	; (8000124 <__do_global_dtors_aux+0x18>)
 8000110:	7823      	ldrb	r3, [r4, #0]
 8000112:	b933      	cbnz	r3, 8000122 <__do_global_dtors_aux+0x16>
 8000114:	4b04      	ldr	r3, [pc, #16]	; (8000128 <__do_global_dtors_aux+0x1c>)
 8000116:	b113      	cbz	r3, 800011e <__do_global_dtors_aux+0x12>
 8000118:	4804      	ldr	r0, [pc, #16]	; (800012c <__do_global_dtors_aux+0x20>)
 800011a:	f3af 8000 	nop.w
 800011e:	2301      	movs	r3, #1
 8000120:	7023      	strb	r3, [r4, #0]
 8000122:	bd10      	pop	{r4, pc}
 8000124:	2000005c 	.word	0x2000005c
 8000128:	00000000 	.word	0x00000000
 800012c:	080031d8 	.word	0x080031d8

08000130 <frame_dummy>:
 8000130:	b508      	push	{r3, lr}
 8000132:	4b03      	ldr	r3, [pc, #12]	; (8000140 <frame_dummy+0x10>)
 8000134:	b11b      	cbz	r3, 800013e <frame_dummy+0xe>
 8000136:	4903      	ldr	r1, [pc, #12]	; (8000144 <frame_dummy+0x14>)
 8000138:	4803      	ldr	r0, [pc, #12]	; (8000148 <frame_dummy+0x18>)
 800013a:	f3af 8000 	nop.w
 800013e:	bd08      	pop	{r3, pc}
 8000140:	00000000 	.word	0x00000000
 8000144:	20000060 	.word	0x20000060
 8000148:	080031d8 	.word	0x080031d8

0800014c <strcmp>:
 800014c:	f810 2b01 	ldrb.w	r2, [r0], #1
 8000150:	f811 3b01 	ldrb.w	r3, [r1], #1
 8000154:	2a01      	cmp	r2, #1
 8000156:	bf28      	it	cs
 8000158:	429a      	cmpcs	r2, r3
 800015a:	d0f7      	beq.n	800014c <strcmp>
 800015c:	1ad0      	subs	r0, r2, r3
 800015e:	4770      	bx	lr

08000160 <strlen>:
 8000160:	4603      	mov	r3, r0
 8000162:	f813 2b01 	ldrb.w	r2, [r3], #1
 8000166:	2a00      	cmp	r2, #0
 8000168:	d1fb      	bne.n	8000162 <strlen+0x2>
 800016a:	1a18      	subs	r0, r3, r0
 800016c:	3801      	subs	r0, #1
 800016e:	4770      	bx	lr

08000170 <SPI_TxBuffer>:
 8000170:	4b05      	ldr	r3, [pc, #20]	; (8000188 <SPI_TxBuffer+0x18>)
 8000172:	460a      	mov	r2, r1
 8000174:	6819      	ldr	r1, [r3, #0]
 8000176:	688b      	ldr	r3, [r1, #8]
 8000178:	079b      	lsls	r3, r3, #30
 800017a:	d5fc      	bpl.n	8000176 <SPI_TxBuffer+0x6>
 800017c:	4601      	mov	r1, r0
 800017e:	2364      	movs	r3, #100	; 0x64
 8000180:	4801      	ldr	r0, [pc, #4]	; (8000188 <SPI_TxBuffer+0x18>)
 8000182:	f001 b9f9 	b.w	8001578 <HAL_SPI_Transmit>
 8000186:	bf00      	nop
 8000188:	200020dc 	.word	0x200020dc

0800018c <SPI_TxByte>:
 800018c:	b507      	push	{r0, r1, r2, lr}
 800018e:	4b08      	ldr	r3, [pc, #32]	; (80001b0 <SPI_TxByte+0x24>)
 8000190:	f88d 0007 	strb.w	r0, [sp, #7]
 8000194:	681a      	ldr	r2, [r3, #0]
 8000196:	6893      	ldr	r3, [r2, #8]
 8000198:	079b      	lsls	r3, r3, #30
 800019a:	d5fc      	bpl.n	8000196 <SPI_TxByte+0xa>
 800019c:	2364      	movs	r3, #100	; 0x64
 800019e:	2201      	movs	r2, #1
 80001a0:	f10d 0107 	add.w	r1, sp, #7
 80001a4:	4802      	ldr	r0, [pc, #8]	; (80001b0 <SPI_TxByte+0x24>)
 80001a6:	f001 f9e7 	bl	8001578 <HAL_SPI_Transmit>
 80001aa:	b003      	add	sp, #12
 80001ac:	f85d fb04 	ldr.w	pc, [sp], #4
 80001b0:	200020dc 	.word	0x200020dc

080001b4 <SELECT>:
 80001b4:	b508      	push	{r3, lr}
 80001b6:	4805      	ldr	r0, [pc, #20]	; (80001cc <SELECT+0x18>)
 80001b8:	2200      	movs	r2, #0
 80001ba:	f44f 7100 	mov.w	r1, #512	; 0x200
 80001be:	f000 fe87 	bl	8000ed0 <HAL_GPIO_WritePin>
 80001c2:	e8bd 4008 	ldmia.w	sp!, {r3, lr}
 80001c6:	2001      	movs	r0, #1
 80001c8:	f000 bd3e 	b.w	8000c48 <HAL_Delay>
 80001cc:	40011000 	.word	0x40011000

080001d0 <DESELECT>:
 80001d0:	b508      	push	{r3, lr}
 80001d2:	4805      	ldr	r0, [pc, #20]	; (80001e8 <DESELECT+0x18>)
 80001d4:	2201      	movs	r2, #1
 80001d6:	f44f 7100 	mov.w	r1, #512	; 0x200
 80001da:	f000 fe79 	bl	8000ed0 <HAL_GPIO_WritePin>
 80001de:	e8bd 4008 	ldmia.w	sp!, {r3, lr}
 80001e2:	2001      	movs	r0, #1
 80001e4:	f000 bd30 	b.w	8000c48 <HAL_Delay>
 80001e8:	40011000 	.word	0x40011000

080001ec <SPI_RxByte>:
 80001ec:	b51f      	push	{r0, r1, r2, r3, r4, lr}
 80001ee:	23ff      	movs	r3, #255	; 0xff
 80001f0:	f88d 300e 	strb.w	r3, [sp, #14]
 80001f4:	4b09      	ldr	r3, [pc, #36]	; (800021c <SPI_RxByte+0x30>)
 80001f6:	681a      	ldr	r2, [r3, #0]
 80001f8:	6893      	ldr	r3, [r2, #8]
 80001fa:	079b      	lsls	r3, r3, #30
 80001fc:	d5fc      	bpl.n	80001f8 <SPI_RxByte+0xc>
 80001fe:	2364      	movs	r3, #100	; 0x64
 8000200:	f10d 020f 	add.w	r2, sp, #15
 8000204:	9300      	str	r3, [sp, #0]
 8000206:	f10d 010e 	add.w	r1, sp, #14
 800020a:	2301      	movs	r3, #1
 800020c:	4803      	ldr	r0, [pc, #12]	; (800021c <SPI_RxByte+0x30>)
 800020e:	f001 fa60 	bl	80016d2 <HAL_SPI_TransmitReceive>
 8000212:	f89d 000f 	ldrb.w	r0, [sp, #15]
 8000216:	b005      	add	sp, #20
 8000218:	f85d fb04 	ldr.w	pc, [sp], #4
 800021c:	200020dc 	.word	0x200020dc

08000220 <SD_PowerOn>:
 8000220:	b513      	push	{r0, r1, r4, lr}
 8000222:	f7ff ffd5 	bl	80001d0 <DESELECT>
 8000226:	240a      	movs	r4, #10
 8000228:	20ff      	movs	r0, #255	; 0xff
 800022a:	f7ff ffaf 	bl	800018c <SPI_TxByte>
 800022e:	3c01      	subs	r4, #1
 8000230:	d1fa      	bne.n	8000228 <SD_PowerOn+0x8>
 8000232:	f7ff ffbf 	bl	80001b4 <SELECT>
 8000236:	2340      	movs	r3, #64	; 0x40
 8000238:	f88d 3000 	strb.w	r3, [sp]
 800023c:	2395      	movs	r3, #149	; 0x95
 800023e:	2106      	movs	r1, #6
 8000240:	4668      	mov	r0, sp
 8000242:	f88d 4001 	strb.w	r4, [sp, #1]
 8000246:	f88d 4002 	strb.w	r4, [sp, #2]
 800024a:	f88d 4003 	strb.w	r4, [sp, #3]
 800024e:	f88d 4004 	strb.w	r4, [sp, #4]
 8000252:	f88d 3005 	strb.w	r3, [sp, #5]
 8000256:	f44f 5400 	mov.w	r4, #8192	; 0x2000
 800025a:	f7ff ff89 	bl	8000170 <SPI_TxBuffer>
 800025e:	f7ff ffc5 	bl	80001ec <SPI_RxByte>
 8000262:	2801      	cmp	r0, #1
 8000264:	d001      	beq.n	800026a <SD_PowerOn+0x4a>
 8000266:	3c01      	subs	r4, #1
 8000268:	d1f9      	bne.n	800025e <SD_PowerOn+0x3e>
 800026a:	f7ff ffb1 	bl	80001d0 <DESELECT>
 800026e:	20ff      	movs	r0, #255	; 0xff
 8000270:	f7ff ff8c 	bl	800018c <SPI_TxByte>
 8000274:	2201      	movs	r2, #1
 8000276:	4b02      	ldr	r3, [pc, #8]	; (8000280 <SD_PowerOn+0x60>)
 8000278:	701a      	strb	r2, [r3, #0]
 800027a:	b002      	add	sp, #8
 800027c:	bd10      	pop	{r4, pc}
 800027e:	bf00      	nop
 8000280:	20000079 	.word	0x20000079

08000284 <SD_ReadyWait>:
 8000284:	f44f 73fa 	mov.w	r3, #500	; 0x1f4
 8000288:	b510      	push	{r4, lr}
 800028a:	4c05      	ldr	r4, [pc, #20]	; (80002a0 <SD_ReadyWait+0x1c>)
 800028c:	8023      	strh	r3, [r4, #0]
 800028e:	f7ff ffad 	bl	80001ec <SPI_RxByte>
 8000292:	28ff      	cmp	r0, #255	; 0xff
 8000294:	d002      	beq.n	800029c <SD_ReadyWait+0x18>
 8000296:	8823      	ldrh	r3, [r4, #0]
 8000298:	2b00      	cmp	r3, #0
 800029a:	d1f8      	bne.n	800028e <SD_ReadyWait+0xa>
 800029c:	bd10      	pop	{r4, pc}
 800029e:	bf00      	nop
 80002a0:	2000007c 	.word	0x2000007c

080002a4 <SD_TxDataBlock>:
 80002a4:	b570      	push	{r4, r5, r6, lr}
 80002a6:	4606      	mov	r6, r0
 80002a8:	460d      	mov	r5, r1
 80002aa:	f7ff ffeb 	bl	8000284 <SD_ReadyWait>
 80002ae:	28ff      	cmp	r0, #255	; 0xff
 80002b0:	f04f 0400 	mov.w	r4, #0
 80002b4:	d123      	bne.n	80002fe <SD_TxDataBlock+0x5a>
 80002b6:	4628      	mov	r0, r5
 80002b8:	f7ff ff68 	bl	800018c <SPI_TxByte>
 80002bc:	2dfd      	cmp	r5, #253	; 0xfd
 80002be:	d018      	beq.n	80002f2 <SD_TxDataBlock+0x4e>
 80002c0:	f44f 7100 	mov.w	r1, #512	; 0x200
 80002c4:	4630      	mov	r0, r6
 80002c6:	f7ff ff53 	bl	8000170 <SPI_TxBuffer>
 80002ca:	2541      	movs	r5, #65	; 0x41
 80002cc:	f7ff ff8e 	bl	80001ec <SPI_RxByte>
 80002d0:	f7ff ff8c 	bl	80001ec <SPI_RxByte>
 80002d4:	f7ff ff8a 	bl	80001ec <SPI_RxByte>
 80002d8:	f000 031f 	and.w	r3, r0, #31
 80002dc:	2b05      	cmp	r3, #5
 80002de:	4604      	mov	r4, r0
 80002e0:	d003      	beq.n	80002ea <SD_TxDataBlock+0x46>
 80002e2:	3d01      	subs	r5, #1
 80002e4:	f015 05ff 	ands.w	r5, r5, #255	; 0xff
 80002e8:	d1f4      	bne.n	80002d4 <SD_TxDataBlock+0x30>
 80002ea:	f7ff ff7f 	bl	80001ec <SPI_RxByte>
 80002ee:	2800      	cmp	r0, #0
 80002f0:	d0fb      	beq.n	80002ea <SD_TxDataBlock+0x46>
 80002f2:	f004 041f 	and.w	r4, r4, #31
 80002f6:	1f63      	subs	r3, r4, #5
 80002f8:	4258      	negs	r0, r3
 80002fa:	4158      	adcs	r0, r3
 80002fc:	bd70      	pop	{r4, r5, r6, pc}
 80002fe:	4620      	mov	r0, r4
 8000300:	e7fc      	b.n	80002fc <SD_TxDataBlock+0x58>

08000302 <SD_SendCmd>:
 8000302:	b538      	push	{r3, r4, r5, lr}
 8000304:	4604      	mov	r4, r0
 8000306:	460d      	mov	r5, r1
 8000308:	f7ff ffbc 	bl	8000284 <SD_ReadyWait>
 800030c:	28ff      	cmp	r0, #255	; 0xff
 800030e:	d128      	bne.n	8000362 <SD_SendCmd+0x60>
 8000310:	4620      	mov	r0, r4
 8000312:	f7ff ff3b 	bl	800018c <SPI_TxByte>
 8000316:	0e28      	lsrs	r0, r5, #24
 8000318:	f7ff ff38 	bl	800018c <SPI_TxByte>
 800031c:	f3c5 4007 	ubfx	r0, r5, #16, #8
 8000320:	f7ff ff34 	bl	800018c <SPI_TxByte>
 8000324:	f3c5 2007 	ubfx	r0, r5, #8, #8
 8000328:	f7ff ff30 	bl	800018c <SPI_TxByte>
 800032c:	b2e8      	uxtb	r0, r5
 800032e:	f7ff ff2d 	bl	800018c <SPI_TxByte>
 8000332:	2c40      	cmp	r4, #64	; 0x40
 8000334:	d013      	beq.n	800035e <SD_SendCmd+0x5c>
 8000336:	2c48      	cmp	r4, #72	; 0x48
 8000338:	bf0c      	ite	eq
 800033a:	2087      	moveq	r0, #135	; 0x87
 800033c:	2001      	movne	r0, #1
 800033e:	f7ff ff25 	bl	800018c <SPI_TxByte>
 8000342:	2c4c      	cmp	r4, #76	; 0x4c
 8000344:	d101      	bne.n	800034a <SD_SendCmd+0x48>
 8000346:	f7ff ff51 	bl	80001ec <SPI_RxByte>
 800034a:	240a      	movs	r4, #10
 800034c:	f7ff ff4e 	bl	80001ec <SPI_RxByte>
 8000350:	0603      	lsls	r3, r0, #24
 8000352:	d503      	bpl.n	800035c <SD_SendCmd+0x5a>
 8000354:	3c01      	subs	r4, #1
 8000356:	f014 04ff 	ands.w	r4, r4, #255	; 0xff
 800035a:	d1f7      	bne.n	800034c <SD_SendCmd+0x4a>
 800035c:	bd38      	pop	{r3, r4, r5, pc}
 800035e:	2095      	movs	r0, #149	; 0x95
 8000360:	e7ed      	b.n	800033e <SD_SendCmd+0x3c>
 8000362:	20ff      	movs	r0, #255	; 0xff
 8000364:	e7fa      	b.n	800035c <SD_SendCmd+0x5a>
	...

08000368 <SD_RxDataBlock>:
 8000368:	23c8      	movs	r3, #200	; 0xc8
 800036a:	b570      	push	{r4, r5, r6, lr}
 800036c:	4604      	mov	r4, r0
 800036e:	460e      	mov	r6, r1
 8000370:	4d0d      	ldr	r5, [pc, #52]	; (80003a8 <SD_RxDataBlock+0x40>)
 8000372:	802b      	strh	r3, [r5, #0]
 8000374:	f7ff ff3a 	bl	80001ec <SPI_RxByte>
 8000378:	28ff      	cmp	r0, #255	; 0xff
 800037a:	d103      	bne.n	8000384 <SD_RxDataBlock+0x1c>
 800037c:	8828      	ldrh	r0, [r5, #0]
 800037e:	2800      	cmp	r0, #0
 8000380:	d1f8      	bne.n	8000374 <SD_RxDataBlock+0xc>
 8000382:	bd70      	pop	{r4, r5, r6, pc}
 8000384:	28fe      	cmp	r0, #254	; 0xfe
 8000386:	d10d      	bne.n	80003a4 <SD_RxDataBlock+0x3c>
 8000388:	1e65      	subs	r5, r4, #1
 800038a:	4434      	add	r4, r6
 800038c:	f7ff ff2e 	bl	80001ec <SPI_RxByte>
 8000390:	f805 0f01 	strb.w	r0, [r5, #1]!
 8000394:	42a5      	cmp	r5, r4
 8000396:	d1f9      	bne.n	800038c <SD_RxDataBlock+0x24>
 8000398:	f7ff ff28 	bl	80001ec <SPI_RxByte>
 800039c:	f7ff ff26 	bl	80001ec <SPI_RxByte>
 80003a0:	2001      	movs	r0, #1
 80003a2:	e7ee      	b.n	8000382 <SD_RxDataBlock+0x1a>
 80003a4:	2000      	movs	r0, #0
 80003a6:	e7ec      	b.n	8000382 <SD_RxDataBlock+0x1a>
 80003a8:	2000007a 	.word	0x2000007a

080003ac <SD_disk_initialize>:
 80003ac:	e92d 41f3 	stmdb	sp!, {r0, r1, r4, r5, r6, r7, r8, lr}
 80003b0:	2800      	cmp	r0, #0
 80003b2:	f040 809a 	bne.w	80004ea <SD_disk_initialize+0x13e>
 80003b6:	4e4e      	ldr	r6, [pc, #312]	; (80004f0 <SD_disk_initialize+0x144>)
 80003b8:	7835      	ldrb	r5, [r6, #0]
 80003ba:	f015 0502 	ands.w	r5, r5, #2
 80003be:	d004      	beq.n	80003ca <SD_disk_initialize+0x1e>
 80003c0:	7830      	ldrb	r0, [r6, #0]
 80003c2:	b2c0      	uxtb	r0, r0
 80003c4:	b002      	add	sp, #8
 80003c6:	e8bd 81f0 	ldmia.w	sp!, {r4, r5, r6, r7, r8, pc}
 80003ca:	f7ff ff29 	bl	8000220 <SD_PowerOn>
 80003ce:	f7ff fef1 	bl	80001b4 <SELECT>
 80003d2:	4629      	mov	r1, r5
 80003d4:	2040      	movs	r0, #64	; 0x40
 80003d6:	f7ff ff94 	bl	8000302 <SD_SendCmd>
 80003da:	2801      	cmp	r0, #1
 80003dc:	4604      	mov	r4, r0
 80003de:	d126      	bne.n	800042e <SD_disk_initialize+0x82>
 80003e0:	f44f 737a 	mov.w	r3, #1000	; 0x3e8
 80003e4:	4f43      	ldr	r7, [pc, #268]	; (80004f4 <SD_disk_initialize+0x148>)
 80003e6:	f44f 71d5 	mov.w	r1, #426	; 0x1aa
 80003ea:	2048      	movs	r0, #72	; 0x48
 80003ec:	803b      	strh	r3, [r7, #0]
 80003ee:	f7ff ff88 	bl	8000302 <SD_SendCmd>
 80003f2:	2801      	cmp	r0, #1
 80003f4:	d149      	bne.n	800048a <SD_disk_initialize+0xde>
 80003f6:	ad01      	add	r5, sp, #4
 80003f8:	46a8      	mov	r8, r5
 80003fa:	2404      	movs	r4, #4
 80003fc:	f7ff fef6 	bl	80001ec <SPI_RxByte>
 8000400:	3c01      	subs	r4, #1
 8000402:	f014 04ff 	ands.w	r4, r4, #255	; 0xff
 8000406:	f808 0b01 	strb.w	r0, [r8], #1
 800040a:	d1f7      	bne.n	80003fc <SD_disk_initialize+0x50>
 800040c:	f89d 3006 	ldrb.w	r3, [sp, #6]
 8000410:	2b01      	cmp	r3, #1
 8000412:	d10c      	bne.n	800042e <SD_disk_initialize+0x82>
 8000414:	f89d 3007 	ldrb.w	r3, [sp, #7]
 8000418:	2baa      	cmp	r3, #170	; 0xaa
 800041a:	d108      	bne.n	800042e <SD_disk_initialize+0x82>
 800041c:	2100      	movs	r1, #0
 800041e:	2077      	movs	r0, #119	; 0x77
 8000420:	f7ff ff6f 	bl	8000302 <SD_SendCmd>
 8000424:	2801      	cmp	r0, #1
 8000426:	d904      	bls.n	8000432 <SD_disk_initialize+0x86>
 8000428:	883b      	ldrh	r3, [r7, #0]
 800042a:	2b00      	cmp	r3, #0
 800042c:	d1f6      	bne.n	800041c <SD_disk_initialize+0x70>
 800042e:	2400      	movs	r4, #0
 8000430:	e01f      	b.n	8000472 <SD_disk_initialize+0xc6>
 8000432:	f04f 4180 	mov.w	r1, #1073741824	; 0x40000000
 8000436:	2069      	movs	r0, #105	; 0x69
 8000438:	f7ff ff63 	bl	8000302 <SD_SendCmd>
 800043c:	4601      	mov	r1, r0
 800043e:	2800      	cmp	r0, #0
 8000440:	d1f2      	bne.n	8000428 <SD_disk_initialize+0x7c>
 8000442:	883b      	ldrh	r3, [r7, #0]
 8000444:	2b00      	cmp	r3, #0
 8000446:	d0f2      	beq.n	800042e <SD_disk_initialize+0x82>
 8000448:	207a      	movs	r0, #122	; 0x7a
 800044a:	f7ff ff5a 	bl	8000302 <SD_SendCmd>
 800044e:	2800      	cmp	r0, #0
 8000450:	d1ed      	bne.n	800042e <SD_disk_initialize+0x82>
 8000452:	2404      	movs	r4, #4
 8000454:	f7ff feca 	bl	80001ec <SPI_RxByte>
 8000458:	3c01      	subs	r4, #1
 800045a:	f014 04ff 	ands.w	r4, r4, #255	; 0xff
 800045e:	f805 0b01 	strb.w	r0, [r5], #1
 8000462:	d1f7      	bne.n	8000454 <SD_disk_initialize+0xa8>
 8000464:	f89d 3004 	ldrb.w	r3, [sp, #4]
 8000468:	f013 0f40 	tst.w	r3, #64	; 0x40
 800046c:	bf14      	ite	ne
 800046e:	240c      	movne	r4, #12
 8000470:	2404      	moveq	r4, #4
 8000472:	4b21      	ldr	r3, [pc, #132]	; (80004f8 <SD_disk_initialize+0x14c>)
 8000474:	701c      	strb	r4, [r3, #0]
 8000476:	f7ff feab 	bl	80001d0 <DESELECT>
 800047a:	f7ff feb7 	bl	80001ec <SPI_RxByte>
 800047e:	b38c      	cbz	r4, 80004e4 <SD_disk_initialize+0x138>
 8000480:	7833      	ldrb	r3, [r6, #0]
 8000482:	f003 03fe 	and.w	r3, r3, #254	; 0xfe
 8000486:	7033      	strb	r3, [r6, #0]
 8000488:	e79a      	b.n	80003c0 <SD_disk_initialize+0x14>
 800048a:	4629      	mov	r1, r5
 800048c:	2077      	movs	r0, #119	; 0x77
 800048e:	f7ff ff38 	bl	8000302 <SD_SendCmd>
 8000492:	2801      	cmp	r0, #1
 8000494:	d806      	bhi.n	80004a4 <SD_disk_initialize+0xf8>
 8000496:	4629      	mov	r1, r5
 8000498:	2069      	movs	r0, #105	; 0x69
 800049a:	f7ff ff32 	bl	8000302 <SD_SendCmd>
 800049e:	2801      	cmp	r0, #1
 80004a0:	bf98      	it	ls
 80004a2:	2402      	movls	r4, #2
 80004a4:	2c02      	cmp	r4, #2
 80004a6:	f04f 0100 	mov.w	r1, #0
 80004aa:	d119      	bne.n	80004e0 <SD_disk_initialize+0x134>
 80004ac:	2077      	movs	r0, #119	; 0x77
 80004ae:	f7ff ff28 	bl	8000302 <SD_SendCmd>
 80004b2:	2801      	cmp	r0, #1
 80004b4:	d903      	bls.n	80004be <SD_disk_initialize+0x112>
 80004b6:	883b      	ldrh	r3, [r7, #0]
 80004b8:	2b00      	cmp	r3, #0
 80004ba:	d1f3      	bne.n	80004a4 <SD_disk_initialize+0xf8>
 80004bc:	e7b7      	b.n	800042e <SD_disk_initialize+0x82>
 80004be:	2100      	movs	r1, #0
 80004c0:	2069      	movs	r0, #105	; 0x69
 80004c2:	f7ff ff1e 	bl	8000302 <SD_SendCmd>
 80004c6:	2800      	cmp	r0, #0
 80004c8:	d1f5      	bne.n	80004b6 <SD_disk_initialize+0x10a>
 80004ca:	883b      	ldrh	r3, [r7, #0]
 80004cc:	2b00      	cmp	r3, #0
 80004ce:	d0ae      	beq.n	800042e <SD_disk_initialize+0x82>
 80004d0:	f44f 7100 	mov.w	r1, #512	; 0x200
 80004d4:	2050      	movs	r0, #80	; 0x50
 80004d6:	f7ff ff14 	bl	8000302 <SD_SendCmd>
 80004da:	2800      	cmp	r0, #0
 80004dc:	d0c9      	beq.n	8000472 <SD_disk_initialize+0xc6>
 80004de:	e7a6      	b.n	800042e <SD_disk_initialize+0x82>
 80004e0:	2041      	movs	r0, #65	; 0x41
 80004e2:	e7ee      	b.n	80004c2 <SD_disk_initialize+0x116>
 80004e4:	4b05      	ldr	r3, [pc, #20]	; (80004fc <SD_disk_initialize+0x150>)
 80004e6:	701c      	strb	r4, [r3, #0]
 80004e8:	e76a      	b.n	80003c0 <SD_disk_initialize+0x14>
 80004ea:	2001      	movs	r0, #1
 80004ec:	e76a      	b.n	80003c4 <SD_disk_initialize+0x18>
 80004ee:	bf00      	nop
 80004f0:	20000000 	.word	0x20000000
 80004f4:	2000007a 	.word	0x2000007a
 80004f8:	20000078 	.word	0x20000078
 80004fc:	20000079 	.word	0x20000079

08000500 <SD_disk_status>:
 8000500:	b918      	cbnz	r0, 800050a <SD_disk_status+0xa>
 8000502:	4b03      	ldr	r3, [pc, #12]	; (8000510 <SD_disk_status+0x10>)
 8000504:	7818      	ldrb	r0, [r3, #0]
 8000506:	b2c0      	uxtb	r0, r0
 8000508:	4770      	bx	lr
 800050a:	2001      	movs	r0, #1
 800050c:	4770      	bx	lr
 800050e:	bf00      	nop
 8000510:	20000000 	.word	0x20000000

08000514 <SD_disk_read>:
 8000514:	b570      	push	{r4, r5, r6, lr}
 8000516:	460e      	mov	r6, r1
 8000518:	4615      	mov	r5, r2
 800051a:	461c      	mov	r4, r3
 800051c:	2800      	cmp	r0, #0
 800051e:	d137      	bne.n	8000590 <SD_disk_read+0x7c>
 8000520:	2b00      	cmp	r3, #0
 8000522:	d035      	beq.n	8000590 <SD_disk_read+0x7c>
 8000524:	4b1c      	ldr	r3, [pc, #112]	; (8000598 <SD_disk_read+0x84>)
 8000526:	781b      	ldrb	r3, [r3, #0]
 8000528:	07da      	lsls	r2, r3, #31
 800052a:	d433      	bmi.n	8000594 <SD_disk_read+0x80>
 800052c:	4b1b      	ldr	r3, [pc, #108]	; (800059c <SD_disk_read+0x88>)
 800052e:	781b      	ldrb	r3, [r3, #0]
 8000530:	075b      	lsls	r3, r3, #29
 8000532:	bf58      	it	pl
 8000534:	026d      	lslpl	r5, r5, #9
 8000536:	f7ff fe3d 	bl	80001b4 <SELECT>
 800053a:	2c01      	cmp	r4, #1
 800053c:	4629      	mov	r1, r5
 800053e:	d113      	bne.n	8000568 <SD_disk_read+0x54>
 8000540:	2051      	movs	r0, #81	; 0x51
 8000542:	f7ff fede 	bl	8000302 <SD_SendCmd>
 8000546:	b938      	cbnz	r0, 8000558 <SD_disk_read+0x44>
 8000548:	f44f 7100 	mov.w	r1, #512	; 0x200
 800054c:	4630      	mov	r0, r6
 800054e:	f7ff ff0b 	bl	8000368 <SD_RxDataBlock>
 8000552:	fab0 f480 	clz	r4, r0
 8000556:	0964      	lsrs	r4, r4, #5
 8000558:	f7ff fe3a 	bl	80001d0 <DESELECT>
 800055c:	f7ff fe46 	bl	80001ec <SPI_RxByte>
 8000560:	1e20      	subs	r0, r4, #0
 8000562:	bf18      	it	ne
 8000564:	2001      	movne	r0, #1
 8000566:	bd70      	pop	{r4, r5, r6, pc}
 8000568:	2052      	movs	r0, #82	; 0x52
 800056a:	f7ff feca 	bl	8000302 <SD_SendCmd>
 800056e:	2800      	cmp	r0, #0
 8000570:	d1f2      	bne.n	8000558 <SD_disk_read+0x44>
 8000572:	f44f 7100 	mov.w	r1, #512	; 0x200
 8000576:	4630      	mov	r0, r6
 8000578:	f7ff fef6 	bl	8000368 <SD_RxDataBlock>
 800057c:	b118      	cbz	r0, 8000586 <SD_disk_read+0x72>
 800057e:	3c01      	subs	r4, #1
 8000580:	f506 7600 	add.w	r6, r6, #512	; 0x200
 8000584:	d1f5      	bne.n	8000572 <SD_disk_read+0x5e>
 8000586:	2100      	movs	r1, #0
 8000588:	204c      	movs	r0, #76	; 0x4c
 800058a:	f7ff feba 	bl	8000302 <SD_SendCmd>
 800058e:	e7e3      	b.n	8000558 <SD_disk_read+0x44>
 8000590:	2004      	movs	r0, #4
 8000592:	e7e8      	b.n	8000566 <SD_disk_read+0x52>
 8000594:	2003      	movs	r0, #3
 8000596:	e7e6      	b.n	8000566 <SD_disk_read+0x52>
 8000598:	20000000 	.word	0x20000000
 800059c:	20000078 	.word	0x20000078

080005a0 <SD_disk_write>:
 80005a0:	b5f8      	push	{r3, r4, r5, r6, r7, lr}
 80005a2:	460d      	mov	r5, r1
 80005a4:	4616      	mov	r6, r2
 80005a6:	461c      	mov	r4, r3
 80005a8:	2800      	cmp	r0, #0
 80005aa:	d147      	bne.n	800063c <SD_disk_write+0x9c>
 80005ac:	2b00      	cmp	r3, #0
 80005ae:	d045      	beq.n	800063c <SD_disk_write+0x9c>
 80005b0:	4b25      	ldr	r3, [pc, #148]	; (8000648 <SD_disk_write+0xa8>)
 80005b2:	781a      	ldrb	r2, [r3, #0]
 80005b4:	07d0      	lsls	r0, r2, #31
 80005b6:	d443      	bmi.n	8000640 <SD_disk_write+0xa0>
 80005b8:	781b      	ldrb	r3, [r3, #0]
 80005ba:	0759      	lsls	r1, r3, #29
 80005bc:	d442      	bmi.n	8000644 <SD_disk_write+0xa4>
 80005be:	4f23      	ldr	r7, [pc, #140]	; (800064c <SD_disk_write+0xac>)
 80005c0:	783b      	ldrb	r3, [r7, #0]
 80005c2:	075a      	lsls	r2, r3, #29
 80005c4:	bf58      	it	pl
 80005c6:	0276      	lslpl	r6, r6, #9
 80005c8:	f7ff fdf4 	bl	80001b4 <SELECT>
 80005cc:	2c01      	cmp	r4, #1
 80005ce:	d113      	bne.n	80005f8 <SD_disk_write+0x58>
 80005d0:	4631      	mov	r1, r6
 80005d2:	2058      	movs	r0, #88	; 0x58
 80005d4:	f7ff fe95 	bl	8000302 <SD_SendCmd>
 80005d8:	bb70      	cbnz	r0, 8000638 <SD_disk_write+0x98>
 80005da:	21fe      	movs	r1, #254	; 0xfe
 80005dc:	4628      	mov	r0, r5
 80005de:	f7ff fe61 	bl	80002a4 <SD_TxDataBlock>
 80005e2:	fab0 f480 	clz	r4, r0
 80005e6:	0964      	lsrs	r4, r4, #5
 80005e8:	f7ff fdf2 	bl	80001d0 <DESELECT>
 80005ec:	f7ff fdfe 	bl	80001ec <SPI_RxByte>
 80005f0:	1e20      	subs	r0, r4, #0
 80005f2:	bf18      	it	ne
 80005f4:	2001      	movne	r0, #1
 80005f6:	bdf8      	pop	{r3, r4, r5, r6, r7, pc}
 80005f8:	783b      	ldrb	r3, [r7, #0]
 80005fa:	079b      	lsls	r3, r3, #30
 80005fc:	d507      	bpl.n	800060e <SD_disk_write+0x6e>
 80005fe:	2100      	movs	r1, #0
 8000600:	2077      	movs	r0, #119	; 0x77
 8000602:	f7ff fe7e 	bl	8000302 <SD_SendCmd>
 8000606:	4621      	mov	r1, r4
 8000608:	2057      	movs	r0, #87	; 0x57
 800060a:	f7ff fe7a 	bl	8000302 <SD_SendCmd>
 800060e:	4631      	mov	r1, r6
 8000610:	2059      	movs	r0, #89	; 0x59
 8000612:	f7ff fe76 	bl	8000302 <SD_SendCmd>
 8000616:	2800      	cmp	r0, #0
 8000618:	d1e6      	bne.n	80005e8 <SD_disk_write+0x48>
 800061a:	21fc      	movs	r1, #252	; 0xfc
 800061c:	4628      	mov	r0, r5
 800061e:	f7ff fe41 	bl	80002a4 <SD_TxDataBlock>
 8000622:	b118      	cbz	r0, 800062c <SD_disk_write+0x8c>
 8000624:	3c01      	subs	r4, #1
 8000626:	f505 7500 	add.w	r5, r5, #512	; 0x200
 800062a:	d1f6      	bne.n	800061a <SD_disk_write+0x7a>
 800062c:	21fd      	movs	r1, #253	; 0xfd
 800062e:	2000      	movs	r0, #0
 8000630:	f7ff fe38 	bl	80002a4 <SD_TxDataBlock>
 8000634:	2800      	cmp	r0, #0
 8000636:	d1d7      	bne.n	80005e8 <SD_disk_write+0x48>
 8000638:	2401      	movs	r4, #1
 800063a:	e7d5      	b.n	80005e8 <SD_disk_write+0x48>
 800063c:	2004      	movs	r0, #4
 800063e:	e7da      	b.n	80005f6 <SD_disk_write+0x56>
 8000640:	2003      	movs	r0, #3
 8000642:	e7d8      	b.n	80005f6 <SD_disk_write+0x56>
 8000644:	2002      	movs	r0, #2
 8000646:	e7d6      	b.n	80005f6 <SD_disk_write+0x56>
 8000648:	20000000 	.word	0x20000000
 800064c:	20000078 	.word	0x20000078

08000650 <SD_disk_ioctl>:
 8000650:	b57f      	push	{r0, r1, r2, r3, r4, r5, r6, lr}
 8000652:	460e      	mov	r6, r1
 8000654:	4615      	mov	r5, r2
 8000656:	4604      	mov	r4, r0
 8000658:	2800      	cmp	r0, #0
 800065a:	f040 8092 	bne.w	8000782 <SD_disk_ioctl+0x132>
 800065e:	2905      	cmp	r1, #5
 8000660:	d113      	bne.n	800068a <SD_disk_ioctl+0x3a>
 8000662:	7813      	ldrb	r3, [r2, #0]
 8000664:	2b01      	cmp	r3, #1
 8000666:	d009      	beq.n	800067c <SD_disk_ioctl+0x2c>
 8000668:	2b02      	cmp	r3, #2
 800066a:	d00a      	beq.n	8000682 <SD_disk_ioctl+0x32>
 800066c:	2b00      	cmp	r3, #0
 800066e:	f040 8088 	bne.w	8000782 <SD_disk_ioctl+0x132>
 8000672:	4b46      	ldr	r3, [pc, #280]	; (800078c <SD_disk_ioctl+0x13c>)
 8000674:	7018      	strb	r0, [r3, #0]
 8000676:	4620      	mov	r0, r4
 8000678:	b004      	add	sp, #16
 800067a:	bd70      	pop	{r4, r5, r6, pc}
 800067c:	f7ff fdd0 	bl	8000220 <SD_PowerOn>
 8000680:	e7f9      	b.n	8000676 <SD_disk_ioctl+0x26>
 8000682:	4b42      	ldr	r3, [pc, #264]	; (800078c <SD_disk_ioctl+0x13c>)
 8000684:	781b      	ldrb	r3, [r3, #0]
 8000686:	7053      	strb	r3, [r2, #1]
 8000688:	e7f5      	b.n	8000676 <SD_disk_ioctl+0x26>
 800068a:	4b41      	ldr	r3, [pc, #260]	; (8000790 <SD_disk_ioctl+0x140>)
 800068c:	7818      	ldrb	r0, [r3, #0]
 800068e:	f010 0401 	ands.w	r4, r0, #1
 8000692:	d178      	bne.n	8000786 <SD_disk_ioctl+0x136>
 8000694:	f7ff fd8e 	bl	80001b4 <SELECT>
 8000698:	2e0d      	cmp	r6, #13
 800069a:	d868      	bhi.n	800076e <SD_disk_ioctl+0x11e>
 800069c:	e8df f006 	tbb	[pc, r6]
 80006a0:	6746074a 	.word	0x6746074a
 80006a4:	67676767 	.word	0x67676767
 80006a8:	51676767 	.word	0x51676767
 80006ac:	625f      	.short	0x625f
 80006ae:	2100      	movs	r1, #0
 80006b0:	2049      	movs	r0, #73	; 0x49
 80006b2:	f7ff fe26 	bl	8000302 <SD_SendCmd>
 80006b6:	4604      	mov	r4, r0
 80006b8:	b128      	cbz	r0, 80006c6 <SD_disk_ioctl+0x76>
 80006ba:	2401      	movs	r4, #1
 80006bc:	f7ff fd88 	bl	80001d0 <DESELECT>
 80006c0:	f7ff fd94 	bl	80001ec <SPI_RxByte>
 80006c4:	e7d7      	b.n	8000676 <SD_disk_ioctl+0x26>
 80006c6:	2110      	movs	r1, #16
 80006c8:	4668      	mov	r0, sp
 80006ca:	f7ff fe4d 	bl	8000368 <SD_RxDataBlock>
 80006ce:	2800      	cmp	r0, #0
 80006d0:	d0f3      	beq.n	80006ba <SD_disk_ioctl+0x6a>
 80006d2:	f89d 1000 	ldrb.w	r1, [sp]
 80006d6:	f89d 3009 	ldrb.w	r3, [sp, #9]
 80006da:	0989      	lsrs	r1, r1, #6
 80006dc:	2901      	cmp	r1, #1
 80006de:	f89d 2008 	ldrb.w	r2, [sp, #8]
 80006e2:	d106      	bne.n	80006f2 <SD_disk_ioctl+0xa2>
 80006e4:	3301      	adds	r3, #1
 80006e6:	eb03 2202 	add.w	r2, r3, r2, lsl #8
 80006ea:	b292      	uxth	r2, r2
 80006ec:	0292      	lsls	r2, r2, #10
 80006ee:	602a      	str	r2, [r5, #0]
 80006f0:	e7e4      	b.n	80006bc <SD_disk_ioctl+0x6c>
 80006f2:	f89d 1007 	ldrb.w	r1, [sp, #7]
 80006f6:	0992      	lsrs	r2, r2, #6
 80006f8:	eb02 0281 	add.w	r2, r2, r1, lsl #2
 80006fc:	f89d 1006 	ldrb.w	r1, [sp, #6]
 8000700:	3201      	adds	r2, #1
 8000702:	0289      	lsls	r1, r1, #10
 8000704:	f401 6140 	and.w	r1, r1, #3072	; 0xc00
 8000708:	440a      	add	r2, r1
 800070a:	f89d 1005 	ldrb.w	r1, [sp, #5]
 800070e:	f89d 000a 	ldrb.w	r0, [sp, #10]
 8000712:	f001 010f 	and.w	r1, r1, #15
 8000716:	005b      	lsls	r3, r3, #1
 8000718:	eb01 11d0 	add.w	r1, r1, r0, lsr #7
 800071c:	f003 0306 	and.w	r3, r3, #6
 8000720:	440b      	add	r3, r1
 8000722:	3b07      	subs	r3, #7
 8000724:	fa02 f303 	lsl.w	r3, r2, r3
 8000728:	602b      	str	r3, [r5, #0]
 800072a:	e7c7      	b.n	80006bc <SD_disk_ioctl+0x6c>
 800072c:	f44f 7300 	mov.w	r3, #512	; 0x200
 8000730:	802b      	strh	r3, [r5, #0]
 8000732:	e7c3      	b.n	80006bc <SD_disk_ioctl+0x6c>
 8000734:	f7ff fda6 	bl	8000284 <SD_ReadyWait>
 8000738:	f1b0 04ff 	subs.w	r4, r0, #255	; 0xff
 800073c:	bf18      	it	ne
 800073e:	2401      	movne	r4, #1
 8000740:	e7bc      	b.n	80006bc <SD_disk_ioctl+0x6c>
 8000742:	2100      	movs	r1, #0
 8000744:	2049      	movs	r0, #73	; 0x49
 8000746:	f7ff fddc 	bl	8000302 <SD_SendCmd>
 800074a:	2800      	cmp	r0, #0
 800074c:	d1b5      	bne.n	80006ba <SD_disk_ioctl+0x6a>
 800074e:	2110      	movs	r1, #16
 8000750:	4628      	mov	r0, r5
 8000752:	f7ff fe09 	bl	8000368 <SD_RxDataBlock>
 8000756:	fab0 f480 	clz	r4, r0
 800075a:	0964      	lsrs	r4, r4, #5
 800075c:	e7ae      	b.n	80006bc <SD_disk_ioctl+0x6c>
 800075e:	2100      	movs	r1, #0
 8000760:	204a      	movs	r0, #74	; 0x4a
 8000762:	e7f0      	b.n	8000746 <SD_disk_ioctl+0xf6>
 8000764:	2100      	movs	r1, #0
 8000766:	207a      	movs	r0, #122	; 0x7a
 8000768:	f7ff fdcb 	bl	8000302 <SD_SendCmd>
 800076c:	b108      	cbz	r0, 8000772 <SD_disk_ioctl+0x122>
 800076e:	2404      	movs	r4, #4
 8000770:	e7a4      	b.n	80006bc <SD_disk_ioctl+0x6c>
 8000772:	1d2c      	adds	r4, r5, #4
 8000774:	f7ff fd3a 	bl	80001ec <SPI_RxByte>
 8000778:	f805 0b01 	strb.w	r0, [r5], #1
 800077c:	42ac      	cmp	r4, r5
 800077e:	d1f9      	bne.n	8000774 <SD_disk_ioctl+0x124>
 8000780:	e7f5      	b.n	800076e <SD_disk_ioctl+0x11e>
 8000782:	2404      	movs	r4, #4
 8000784:	e777      	b.n	8000676 <SD_disk_ioctl+0x26>
 8000786:	2403      	movs	r4, #3
 8000788:	e775      	b.n	8000676 <SD_disk_ioctl+0x26>
 800078a:	bf00      	nop
 800078c:	20000079 	.word	0x20000079
 8000790:	20000000 	.word	0x20000000

08000794 <SystemClock_Config>:
 8000794:	b500      	push	{lr}
 8000796:	b091      	sub	sp, #68	; 0x44
 8000798:	2224      	movs	r2, #36	; 0x24
 800079a:	2100      	movs	r1, #0
 800079c:	a807      	add	r0, sp, #28
 800079e:	f002 fd13 	bl	80031c8 <memset>
 80007a2:	2214      	movs	r2, #20
 80007a4:	2100      	movs	r1, #0
 80007a6:	a801      	add	r0, sp, #4
 80007a8:	f002 fd0e 	bl	80031c8 <memset>
 80007ac:	2302      	movs	r3, #2
 80007ae:	2101      	movs	r1, #1
 80007b0:	9306      	str	r3, [sp, #24]
 80007b2:	2310      	movs	r3, #16
 80007b4:	a806      	add	r0, sp, #24
 80007b6:	e9cd 130a 	strd	r1, r3, [sp, #40]	; 0x28
 80007ba:	f000 fb8f 	bl	8000edc <HAL_RCC_OscConfig>
 80007be:	4601      	mov	r1, r0
 80007c0:	b108      	cbz	r0, 80007c6 <SystemClock_Config+0x32>
 80007c2:	b672      	cpsid	i
 80007c4:	e7fe      	b.n	80007c4 <SystemClock_Config+0x30>
 80007c6:	230f      	movs	r3, #15
 80007c8:	e9cd 0003 	strd	r0, r0, [sp, #12]
 80007cc:	e9cd 3001 	strd	r3, r0, [sp, #4]
 80007d0:	9005      	str	r0, [sp, #20]
 80007d2:	a801      	add	r0, sp, #4
 80007d4:	f000 fd58 	bl	8001288 <HAL_RCC_ClockConfig>
 80007d8:	b108      	cbz	r0, 80007de <SystemClock_Config+0x4a>
 80007da:	b672      	cpsid	i
 80007dc:	e7fe      	b.n	80007dc <SystemClock_Config+0x48>
 80007de:	b011      	add	sp, #68	; 0x44
 80007e0:	f85d fb04 	ldr.w	pc, [sp], #4

080007e4 <indicate>:
 80007e4:	2806      	cmp	r0, #6
 80007e6:	b538      	push	{r3, r4, r5, lr}
 80007e8:	4604      	mov	r4, r0
 80007ea:	dc44      	bgt.n	8000876 <indicate+0x92>
 80007ec:	4b22      	ldr	r3, [pc, #136]	; (8000878 <indicate+0x94>)
 80007ee:	f853 5020 	ldr.w	r5, [r3, r0, lsl #2]
 80007f2:	4628      	mov	r0, r5
 80007f4:	f7ff fcb4 	bl	8000160 <strlen>
 80007f8:	1c42      	adds	r2, r0, #1
 80007fa:	230a      	movs	r3, #10
 80007fc:	4629      	mov	r1, r5
 80007fe:	b292      	uxth	r2, r2
 8000800:	481e      	ldr	r0, [pc, #120]	; (800087c <indicate+0x98>)
 8000802:	f001 f8eb 	bl	80019dc <HAL_UART_Transmit>
 8000806:	2c05      	cmp	r4, #5
 8000808:	d835      	bhi.n	8000876 <indicate+0x92>
 800080a:	e8df f004 	tbb	[pc, r4]
 800080e:	0a03      	.short	0x0a03
 8000810:	312e2c1b 	.word	0x312e2c1b
 8000814:	2201      	movs	r2, #1
 8000816:	2180      	movs	r1, #128	; 0x80
 8000818:	e8bd 4038 	ldmia.w	sp!, {r3, r4, r5, lr}
 800081c:	4818      	ldr	r0, [pc, #96]	; (8000880 <indicate+0x9c>)
 800081e:	f000 bb57 	b.w	8000ed0 <HAL_GPIO_WritePin>
 8000822:	2006      	movs	r0, #6
 8000824:	f7ff ffde 	bl	80007e4 <indicate>
 8000828:	2400      	movs	r4, #0
 800082a:	4d15      	ldr	r5, [pc, #84]	; (8000880 <indicate+0x9c>)
 800082c:	4622      	mov	r2, r4
 800082e:	4628      	mov	r0, r5
 8000830:	2180      	movs	r1, #128	; 0x80
 8000832:	f000 fb4d 	bl	8000ed0 <HAL_GPIO_WritePin>
 8000836:	f44f 707a 	mov.w	r0, #1000	; 0x3e8
 800083a:	f084 0401 	eor.w	r4, r4, #1
 800083e:	f000 fa03 	bl	8000c48 <HAL_Delay>
 8000842:	e7f3      	b.n	800082c <indicate+0x48>
 8000844:	2006      	movs	r0, #6
 8000846:	f7ff ffcd 	bl	80007e4 <indicate>
 800084a:	2400      	movs	r4, #0
 800084c:	4d0c      	ldr	r5, [pc, #48]	; (8000880 <indicate+0x9c>)
 800084e:	4622      	mov	r2, r4
 8000850:	4628      	mov	r0, r5
 8000852:	2180      	movs	r1, #128	; 0x80
 8000854:	f000 fb3c 	bl	8000ed0 <HAL_GPIO_WritePin>
 8000858:	f44f 707a 	mov.w	r0, #1000	; 0x3e8
 800085c:	f084 0401 	eor.w	r4, r4, #1
 8000860:	f000 f9f2 	bl	8000c48 <HAL_Delay>
 8000864:	e7f3      	b.n	800084e <indicate+0x6a>
 8000866:	2200      	movs	r2, #0
 8000868:	e7d5      	b.n	8000816 <indicate+0x32>
 800086a:	2201      	movs	r2, #1
 800086c:	2102      	movs	r1, #2
 800086e:	e7d3      	b.n	8000818 <indicate+0x34>
 8000870:	2201      	movs	r2, #1
 8000872:	2120      	movs	r1, #32
 8000874:	e7d0      	b.n	8000818 <indicate+0x34>
 8000876:	bd38      	pop	{r3, r4, r5, pc}
 8000878:	20000004 	.word	0x20000004
 800087c:	20002134 	.word	0x20002134
 8000880:	40010800 	.word	0x40010800

08000884 <main>:
 8000884:	b5f0      	push	{r4, r5, r6, r7, lr}
 8000886:	b08b      	sub	sp, #44	; 0x2c
 8000888:	f000 f9ba 	bl	8000c00 <HAL_Init>
 800088c:	f7ff ff82 	bl	8000794 <SystemClock_Config>
 8000890:	2210      	movs	r2, #16
 8000892:	2100      	movs	r1, #0
 8000894:	a803      	add	r0, sp, #12
 8000896:	f002 fc97 	bl	80031c8 <memset>
 800089a:	4b4e      	ldr	r3, [pc, #312]	; (80009d4 <main+0x150>)
 800089c:	21a2      	movs	r1, #162	; 0xa2
 800089e:	699a      	ldr	r2, [r3, #24]
 80008a0:	484d      	ldr	r0, [pc, #308]	; (80009d8 <main+0x154>)
 80008a2:	f042 0204 	orr.w	r2, r2, #4
 80008a6:	619a      	str	r2, [r3, #24]
 80008a8:	699a      	ldr	r2, [r3, #24]
 80008aa:	2400      	movs	r4, #0
 80008ac:	f002 0204 	and.w	r2, r2, #4
 80008b0:	9200      	str	r2, [sp, #0]
 80008b2:	9a00      	ldr	r2, [sp, #0]
 80008b4:	699a      	ldr	r2, [r3, #24]
 80008b6:	2501      	movs	r5, #1
 80008b8:	f042 0208 	orr.w	r2, r2, #8
 80008bc:	619a      	str	r2, [r3, #24]
 80008be:	699a      	ldr	r2, [r3, #24]
 80008c0:	2702      	movs	r7, #2
 80008c2:	f002 0208 	and.w	r2, r2, #8
 80008c6:	9201      	str	r2, [sp, #4]
 80008c8:	9a01      	ldr	r2, [sp, #4]
 80008ca:	699a      	ldr	r2, [r3, #24]
 80008cc:	f44f 7600 	mov.w	r6, #512	; 0x200
 80008d0:	f042 0210 	orr.w	r2, r2, #16
 80008d4:	619a      	str	r2, [r3, #24]
 80008d6:	699b      	ldr	r3, [r3, #24]
 80008d8:	2200      	movs	r2, #0
 80008da:	f003 0310 	and.w	r3, r3, #16
 80008de:	9302      	str	r3, [sp, #8]
 80008e0:	9b02      	ldr	r3, [sp, #8]
 80008e2:	f000 faf5 	bl	8000ed0 <HAL_GPIO_WritePin>
 80008e6:	2200      	movs	r2, #0
 80008e8:	f44f 7100 	mov.w	r1, #512	; 0x200
 80008ec:	483b      	ldr	r0, [pc, #236]	; (80009dc <main+0x158>)
 80008ee:	f000 faef 	bl	8000ed0 <HAL_GPIO_WritePin>
 80008f2:	23a2      	movs	r3, #162	; 0xa2
 80008f4:	4838      	ldr	r0, [pc, #224]	; (80009d8 <main+0x154>)
 80008f6:	a903      	add	r1, sp, #12
 80008f8:	e9cd 3503 	strd	r3, r5, [sp, #12]
 80008fc:	e9cd 4705 	strd	r4, r7, [sp, #20]
 8000900:	f000 fa0c 	bl	8000d1c <HAL_GPIO_Init>
 8000904:	4835      	ldr	r0, [pc, #212]	; (80009dc <main+0x158>)
 8000906:	a903      	add	r1, sp, #12
 8000908:	e9cd 5705 	strd	r5, r7, [sp, #20]
 800090c:	e9cd 6503 	strd	r6, r5, [sp, #12]
 8000910:	f000 fa04 	bl	8000d1c <HAL_GPIO_Init>
 8000914:	f001 f8b8 	bl	8001a88 <MX_FATFS_Init>
 8000918:	f44f 7382 	mov.w	r3, #260	; 0x104
 800091c:	4830      	ldr	r0, [pc, #192]	; (80009e0 <main+0x15c>)
 800091e:	4f31      	ldr	r7, [pc, #196]	; (80009e4 <main+0x160>)
 8000920:	e9c0 4402 	strd	r4, r4, [r0, #8]
 8000924:	e9c0 7300 	strd	r7, r3, [r0]
 8000928:	2308      	movs	r3, #8
 800092a:	e9c0 3407 	strd	r3, r4, [r0, #28]
 800092e:	230a      	movs	r3, #10
 8000930:	e9c0 4404 	strd	r4, r4, [r0, #16]
 8000934:	62c3      	str	r3, [r0, #44]	; 0x2c
 8000936:	e9c0 4409 	strd	r4, r4, [r0, #36]	; 0x24
 800093a:	6186      	str	r6, [r0, #24]
 800093c:	f000 fdc4 	bl	80014c8 <HAL_SPI_Init>
 8000940:	4603      	mov	r3, r0
 8000942:	b108      	cbz	r0, 8000948 <main+0xc4>
 8000944:	b672      	cpsid	i
 8000946:	e7fe      	b.n	8000946 <main+0xc2>
 8000948:	f44f 32e1 	mov.w	r2, #115200	; 0x1c200
 800094c:	4826      	ldr	r0, [pc, #152]	; (80009e8 <main+0x164>)
 800094e:	4927      	ldr	r1, [pc, #156]	; (80009ec <main+0x168>)
 8000950:	e9c0 3302 	strd	r3, r3, [r0, #8]
 8000954:	e9c0 1200 	strd	r1, r2, [r0]
 8000958:	220c      	movs	r2, #12
 800095a:	6103      	str	r3, [r0, #16]
 800095c:	e9c0 2305 	strd	r2, r3, [r0, #20]
 8000960:	61c3      	str	r3, [r0, #28]
 8000962:	f001 f80d 	bl	8001980 <HAL_UART_Init>
 8000966:	4604      	mov	r4, r0
 8000968:	b108      	cbz	r0, 800096e <main+0xea>
 800096a:	b672      	cpsid	i
 800096c:	e7fe      	b.n	800096c <main+0xe8>
 800096e:	f7ff ff39 	bl	80007e4 <indicate>
 8000972:	4622      	mov	r2, r4
 8000974:	491e      	ldr	r1, [pc, #120]	; (80009f0 <main+0x16c>)
 8000976:	481f      	ldr	r0, [pc, #124]	; (80009f4 <main+0x170>)
 8000978:	f002 f94e 	bl	8002c18 <f_mount>
 800097c:	b110      	cbz	r0, 8000984 <main+0x100>
 800097e:	4628      	mov	r0, r5
 8000980:	f7ff ff30 	bl	80007e4 <indicate>
 8000984:	2201      	movs	r2, #1
 8000986:	491c      	ldr	r1, [pc, #112]	; (80009f8 <main+0x174>)
 8000988:	481c      	ldr	r0, [pc, #112]	; (80009fc <main+0x178>)
 800098a:	f002 f973 	bl	8002c74 <f_open>
 800098e:	b110      	cbz	r0, 8000996 <main+0x112>
 8000990:	2002      	movs	r0, #2
 8000992:	f7ff ff27 	bl	80007e4 <indicate>
 8000996:	2003      	movs	r0, #3
 8000998:	f7ff ff24 	bl	80007e4 <indicate>
 800099c:	2100      	movs	r1, #0
 800099e:	2216      	movs	r2, #22
 80009a0:	a804      	add	r0, sp, #16
 80009a2:	9103      	str	r1, [sp, #12]
 80009a4:	f002 fc10 	bl	80031c8 <memset>
 80009a8:	211a      	movs	r1, #26
 80009aa:	4a14      	ldr	r2, [pc, #80]	; (80009fc <main+0x178>)
 80009ac:	a803      	add	r0, sp, #12
 80009ae:	f002 fb6b 	bl	8003088 <f_gets>
 80009b2:	4813      	ldr	r0, [pc, #76]	; (8000a00 <main+0x17c>)
 80009b4:	a903      	add	r1, sp, #12
 80009b6:	f7ff fbc9 	bl	800014c <strcmp>
 80009ba:	b948      	cbnz	r0, 80009d0 <main+0x14c>
 80009bc:	2004      	movs	r0, #4
 80009be:	f7ff ff11 	bl	80007e4 <indicate>
 80009c2:	2006      	movs	r0, #6
 80009c4:	f7ff ff0e 	bl	80007e4 <indicate>
 80009c8:	480c      	ldr	r0, [pc, #48]	; (80009fc <main+0x178>)
 80009ca:	f002 fb4c 	bl	8003066 <f_close>
 80009ce:	e7fe      	b.n	80009ce <main+0x14a>
 80009d0:	2005      	movs	r0, #5
 80009d2:	e7f4      	b.n	80009be <main+0x13a>
 80009d4:	40021000 	.word	0x40021000
 80009d8:	40010800 	.word	0x40010800
 80009dc:	40011000 	.word	0x40011000
 80009e0:	200020dc 	.word	0x200020dc
 80009e4:	40003800 	.word	0x40003800
 80009e8:	20002134 	.word	0x20002134
 80009ec:	40004800 	.word	0x40004800
 80009f0:	08003298 	.word	0x08003298
 80009f4:	200010ac 	.word	0x200010ac
 80009f8:	080031f0 	.word	0x080031f0
 80009fc:	20000080 	.word	0x20000080
 8000a00:	20000020 	.word	0x20000020

08000a04 <HAL_MspInit>:
 8000a04:	4b0e      	ldr	r3, [pc, #56]	; (8000a40 <HAL_MspInit+0x3c>)
 8000a06:	b082      	sub	sp, #8
 8000a08:	699a      	ldr	r2, [r3, #24]
 8000a0a:	f042 0201 	orr.w	r2, r2, #1
 8000a0e:	619a      	str	r2, [r3, #24]
 8000a10:	699a      	ldr	r2, [r3, #24]
 8000a12:	f002 0201 	and.w	r2, r2, #1
 8000a16:	9200      	str	r2, [sp, #0]
 8000a18:	9a00      	ldr	r2, [sp, #0]
 8000a1a:	69da      	ldr	r2, [r3, #28]
 8000a1c:	f042 5280 	orr.w	r2, r2, #268435456	; 0x10000000
 8000a20:	61da      	str	r2, [r3, #28]
 8000a22:	69db      	ldr	r3, [r3, #28]
 8000a24:	4a07      	ldr	r2, [pc, #28]	; (8000a44 <HAL_MspInit+0x40>)
 8000a26:	f003 5380 	and.w	r3, r3, #268435456	; 0x10000000
 8000a2a:	9301      	str	r3, [sp, #4]
 8000a2c:	9b01      	ldr	r3, [sp, #4]
 8000a2e:	6853      	ldr	r3, [r2, #4]
 8000a30:	f023 63e0 	bic.w	r3, r3, #117440512	; 0x7000000
 8000a34:	f043 7300 	orr.w	r3, r3, #33554432	; 0x2000000
 8000a38:	6053      	str	r3, [r2, #4]
 8000a3a:	b002      	add	sp, #8
 8000a3c:	4770      	bx	lr
 8000a3e:	bf00      	nop
 8000a40:	40021000 	.word	0x40021000
 8000a44:	40010000 	.word	0x40010000

08000a48 <HAL_SPI_MspInit>:
 8000a48:	b510      	push	{r4, lr}
 8000a4a:	4604      	mov	r4, r0
 8000a4c:	b086      	sub	sp, #24
 8000a4e:	2210      	movs	r2, #16
 8000a50:	2100      	movs	r1, #0
 8000a52:	a802      	add	r0, sp, #8
 8000a54:	f002 fbb8 	bl	80031c8 <memset>
 8000a58:	6822      	ldr	r2, [r4, #0]
 8000a5a:	4b17      	ldr	r3, [pc, #92]	; (8000ab8 <HAL_SPI_MspInit+0x70>)
 8000a5c:	429a      	cmp	r2, r3
 8000a5e:	d128      	bne.n	8000ab2 <HAL_SPI_MspInit+0x6a>
 8000a60:	f503 33ec 	add.w	r3, r3, #120832	; 0x1d800
 8000a64:	69da      	ldr	r2, [r3, #28]
 8000a66:	4815      	ldr	r0, [pc, #84]	; (8000abc <HAL_SPI_MspInit+0x74>)
 8000a68:	f442 4280 	orr.w	r2, r2, #16384	; 0x4000
 8000a6c:	61da      	str	r2, [r3, #28]
 8000a6e:	69da      	ldr	r2, [r3, #28]
 8000a70:	a902      	add	r1, sp, #8
 8000a72:	f402 4280 	and.w	r2, r2, #16384	; 0x4000
 8000a76:	9200      	str	r2, [sp, #0]
 8000a78:	9a00      	ldr	r2, [sp, #0]
 8000a7a:	699a      	ldr	r2, [r3, #24]
 8000a7c:	f042 0208 	orr.w	r2, r2, #8
 8000a80:	619a      	str	r2, [r3, #24]
 8000a82:	699b      	ldr	r3, [r3, #24]
 8000a84:	f44f 4220 	mov.w	r2, #40960	; 0xa000
 8000a88:	f003 0308 	and.w	r3, r3, #8
 8000a8c:	9301      	str	r3, [sp, #4]
 8000a8e:	9b01      	ldr	r3, [sp, #4]
 8000a90:	2302      	movs	r3, #2
 8000a92:	e9cd 2302 	strd	r2, r3, [sp, #8]
 8000a96:	2303      	movs	r3, #3
 8000a98:	9305      	str	r3, [sp, #20]
 8000a9a:	f000 f93f 	bl	8000d1c <HAL_GPIO_Init>
 8000a9e:	f44f 4180 	mov.w	r1, #16384	; 0x4000
 8000aa2:	2300      	movs	r3, #0
 8000aa4:	4805      	ldr	r0, [pc, #20]	; (8000abc <HAL_SPI_MspInit+0x74>)
 8000aa6:	e9cd 1302 	strd	r1, r3, [sp, #8]
 8000aaa:	a902      	add	r1, sp, #8
 8000aac:	9304      	str	r3, [sp, #16]
 8000aae:	f000 f935 	bl	8000d1c <HAL_GPIO_Init>
 8000ab2:	b006      	add	sp, #24
 8000ab4:	bd10      	pop	{r4, pc}
 8000ab6:	bf00      	nop
 8000ab8:	40003800 	.word	0x40003800
 8000abc:	40010c00 	.word	0x40010c00

08000ac0 <HAL_UART_MspInit>:
 8000ac0:	b510      	push	{r4, lr}
 8000ac2:	4604      	mov	r4, r0
 8000ac4:	b086      	sub	sp, #24
 8000ac6:	2210      	movs	r2, #16
 8000ac8:	2100      	movs	r1, #0
 8000aca:	a802      	add	r0, sp, #8
 8000acc:	f002 fb7c 	bl	80031c8 <memset>
 8000ad0:	6822      	ldr	r2, [r4, #0]
 8000ad2:	4b17      	ldr	r3, [pc, #92]	; (8000b30 <HAL_UART_MspInit+0x70>)
 8000ad4:	429a      	cmp	r2, r3
 8000ad6:	d128      	bne.n	8000b2a <HAL_UART_MspInit+0x6a>
 8000ad8:	f503 33e4 	add.w	r3, r3, #116736	; 0x1c800
 8000adc:	69da      	ldr	r2, [r3, #28]
 8000ade:	4815      	ldr	r0, [pc, #84]	; (8000b34 <HAL_UART_MspInit+0x74>)
 8000ae0:	f442 2280 	orr.w	r2, r2, #262144	; 0x40000
 8000ae4:	61da      	str	r2, [r3, #28]
 8000ae6:	69da      	ldr	r2, [r3, #28]
 8000ae8:	a902      	add	r1, sp, #8
 8000aea:	f402 2280 	and.w	r2, r2, #262144	; 0x40000
 8000aee:	9200      	str	r2, [sp, #0]
 8000af0:	9a00      	ldr	r2, [sp, #0]
 8000af2:	699a      	ldr	r2, [r3, #24]
 8000af4:	f042 0208 	orr.w	r2, r2, #8
 8000af8:	619a      	str	r2, [r3, #24]
 8000afa:	699b      	ldr	r3, [r3, #24]
 8000afc:	f44f 6280 	mov.w	r2, #1024	; 0x400
 8000b00:	f003 0308 	and.w	r3, r3, #8
 8000b04:	9301      	str	r3, [sp, #4]
 8000b06:	9b01      	ldr	r3, [sp, #4]
 8000b08:	2302      	movs	r3, #2
 8000b0a:	e9cd 2302 	strd	r2, r3, [sp, #8]
 8000b0e:	2303      	movs	r3, #3
 8000b10:	9305      	str	r3, [sp, #20]
 8000b12:	f000 f903 	bl	8000d1c <HAL_GPIO_Init>
 8000b16:	f44f 6100 	mov.w	r1, #2048	; 0x800
 8000b1a:	2300      	movs	r3, #0
 8000b1c:	4805      	ldr	r0, [pc, #20]	; (8000b34 <HAL_UART_MspInit+0x74>)
 8000b1e:	e9cd 1302 	strd	r1, r3, [sp, #8]
 8000b22:	a902      	add	r1, sp, #8
 8000b24:	9304      	str	r3, [sp, #16]
 8000b26:	f000 f8f9 	bl	8000d1c <HAL_GPIO_Init>
 8000b2a:	b006      	add	sp, #24
 8000b2c:	bd10      	pop	{r4, pc}
 8000b2e:	bf00      	nop
 8000b30:	40004800 	.word	0x40004800
 8000b34:	40010c00 	.word	0x40010c00

08000b38 <NMI_Handler>:
 8000b38:	e7fe      	b.n	8000b38 <NMI_Handler>

08000b3a <HardFault_Handler>:
 8000b3a:	e7fe      	b.n	8000b3a <HardFault_Handler>

08000b3c <MemManage_Handler>:
 8000b3c:	e7fe      	b.n	8000b3c <MemManage_Handler>

08000b3e <BusFault_Handler>:
 8000b3e:	e7fe      	b.n	8000b3e <BusFault_Handler>

08000b40 <UsageFault_Handler>:
 8000b40:	e7fe      	b.n	8000b40 <UsageFault_Handler>

08000b42 <SVC_Handler>:
 8000b42:	4770      	bx	lr

08000b44 <DebugMon_Handler>:
 8000b44:	4770      	bx	lr

08000b46 <PendSV_Handler>:
 8000b46:	4770      	bx	lr

08000b48 <SysTick_Handler>:
 8000b48:	4a05      	ldr	r2, [pc, #20]	; (8000b60 <SysTick_Handler+0x18>)
 8000b4a:	8813      	ldrh	r3, [r2, #0]
 8000b4c:	b10b      	cbz	r3, 8000b52 <SysTick_Handler+0xa>
 8000b4e:	3b01      	subs	r3, #1
 8000b50:	8013      	strh	r3, [r2, #0]
 8000b52:	4a04      	ldr	r2, [pc, #16]	; (8000b64 <SysTick_Handler+0x1c>)
 8000b54:	8813      	ldrh	r3, [r2, #0]
 8000b56:	b10b      	cbz	r3, 8000b5c <SysTick_Handler+0x14>
 8000b58:	3b01      	subs	r3, #1
 8000b5a:	8013      	strh	r3, [r2, #0]
 8000b5c:	f000 b862 	b.w	8000c24 <HAL_IncTick>
 8000b60:	2000007a 	.word	0x2000007a
 8000b64:	2000007c 	.word	0x2000007c

08000b68 <SystemInit>:
 8000b68:	4770      	bx	lr
	...

08000b6c <Reset_Handler>:
 8000b6c:	480c      	ldr	r0, [pc, #48]	; (8000ba0 <LoopFillZerobss+0x12>)
 8000b6e:	490d      	ldr	r1, [pc, #52]	; (8000ba4 <LoopFillZerobss+0x16>)
 8000b70:	4a0d      	ldr	r2, [pc, #52]	; (8000ba8 <LoopFillZerobss+0x1a>)
 8000b72:	2300      	movs	r3, #0
 8000b74:	e002      	b.n	8000b7c <LoopCopyDataInit>

08000b76 <CopyDataInit>:
 8000b76:	58d4      	ldr	r4, [r2, r3]
 8000b78:	50c4      	str	r4, [r0, r3]
 8000b7a:	3304      	adds	r3, #4

08000b7c <LoopCopyDataInit>:
 8000b7c:	18c4      	adds	r4, r0, r3
 8000b7e:	428c      	cmp	r4, r1
 8000b80:	d3f9      	bcc.n	8000b76 <CopyDataInit>
 8000b82:	4a0a      	ldr	r2, [pc, #40]	; (8000bac <LoopFillZerobss+0x1e>)
 8000b84:	4c0a      	ldr	r4, [pc, #40]	; (8000bb0 <LoopFillZerobss+0x22>)
 8000b86:	2300      	movs	r3, #0
 8000b88:	e001      	b.n	8000b8e <LoopFillZerobss>

08000b8a <FillZerobss>:
 8000b8a:	6013      	str	r3, [r2, #0]
 8000b8c:	3204      	adds	r2, #4

08000b8e <LoopFillZerobss>:
 8000b8e:	42a2      	cmp	r2, r4
 8000b90:	d3fb      	bcc.n	8000b8a <FillZerobss>
 8000b92:	f7ff ffe9 	bl	8000b68 <SystemInit>
 8000b96:	f002 faf3 	bl	8003180 <__libc_init_array>
 8000b9a:	f7ff fe73 	bl	8000884 <main>
 8000b9e:	4770      	bx	lr
 8000ba0:	20000000 	.word	0x20000000
 8000ba4:	2000005c 	.word	0x2000005c
 8000ba8:	0800386c 	.word	0x0800386c
 8000bac:	2000005c 	.word	0x2000005c
 8000bb0:	200023b0 	.word	0x200023b0

08000bb4 <ADC1_2_IRQHandler>:
 8000bb4:	e7fe      	b.n	8000bb4 <ADC1_2_IRQHandler>
	...

08000bb8 <HAL_InitTick>:
 8000bb8:	b538      	push	{r3, r4, r5, lr}
 8000bba:	4b0e      	ldr	r3, [pc, #56]	; (8000bf4 <HAL_InitTick+0x3c>)
 8000bbc:	4605      	mov	r5, r0
 8000bbe:	7818      	ldrb	r0, [r3, #0]
 8000bc0:	f44f 737a 	mov.w	r3, #1000	; 0x3e8
 8000bc4:	fbb3 f3f0 	udiv	r3, r3, r0
 8000bc8:	4a0b      	ldr	r2, [pc, #44]	; (8000bf8 <HAL_InitTick+0x40>)
 8000bca:	6810      	ldr	r0, [r2, #0]
 8000bcc:	fbb0 f0f3 	udiv	r0, r0, r3
 8000bd0:	f000 f890 	bl	8000cf4 <HAL_SYSTICK_Config>
 8000bd4:	4604      	mov	r4, r0
 8000bd6:	b958      	cbnz	r0, 8000bf0 <HAL_InitTick+0x38>
 8000bd8:	2d0f      	cmp	r5, #15
 8000bda:	d809      	bhi.n	8000bf0 <HAL_InitTick+0x38>
 8000bdc:	4602      	mov	r2, r0
 8000bde:	4629      	mov	r1, r5
 8000be0:	f04f 30ff 	mov.w	r0, #4294967295
 8000be4:	f000 f854 	bl	8000c90 <HAL_NVIC_SetPriority>
 8000be8:	4620      	mov	r0, r4
 8000bea:	4b04      	ldr	r3, [pc, #16]	; (8000bfc <HAL_InitTick+0x44>)
 8000bec:	601d      	str	r5, [r3, #0]
 8000bee:	bd38      	pop	{r3, r4, r5, pc}
 8000bf0:	2001      	movs	r0, #1
 8000bf2:	e7fc      	b.n	8000bee <HAL_InitTick+0x36>
 8000bf4:	20000040 	.word	0x20000040
 8000bf8:	2000003c 	.word	0x2000003c
 8000bfc:	20000044 	.word	0x20000044

08000c00 <HAL_Init>:
 8000c00:	4a07      	ldr	r2, [pc, #28]	; (8000c20 <HAL_Init+0x20>)
 8000c02:	b508      	push	{r3, lr}
 8000c04:	6813      	ldr	r3, [r2, #0]
 8000c06:	2003      	movs	r0, #3
 8000c08:	f043 0310 	orr.w	r3, r3, #16
 8000c0c:	6013      	str	r3, [r2, #0]
 8000c0e:	f000 f82d 	bl	8000c6c <HAL_NVIC_SetPriorityGrouping>
 8000c12:	200f      	movs	r0, #15
 8000c14:	f7ff ffd0 	bl	8000bb8 <HAL_InitTick>
 8000c18:	f7ff fef4 	bl	8000a04 <HAL_MspInit>
 8000c1c:	2000      	movs	r0, #0
 8000c1e:	bd08      	pop	{r3, pc}
 8000c20:	40022000 	.word	0x40022000

08000c24 <HAL_IncTick>:
 8000c24:	4a03      	ldr	r2, [pc, #12]	; (8000c34 <HAL_IncTick+0x10>)
 8000c26:	4b04      	ldr	r3, [pc, #16]	; (8000c38 <HAL_IncTick+0x14>)
 8000c28:	6811      	ldr	r1, [r2, #0]
 8000c2a:	781b      	ldrb	r3, [r3, #0]
 8000c2c:	440b      	add	r3, r1
 8000c2e:	6013      	str	r3, [r2, #0]
 8000c30:	4770      	bx	lr
 8000c32:	bf00      	nop
 8000c34:	20002178 	.word	0x20002178
 8000c38:	20000040 	.word	0x20000040

08000c3c <HAL_GetTick>:
 8000c3c:	4b01      	ldr	r3, [pc, #4]	; (8000c44 <HAL_GetTick+0x8>)
 8000c3e:	6818      	ldr	r0, [r3, #0]
 8000c40:	4770      	bx	lr
 8000c42:	bf00      	nop
 8000c44:	20002178 	.word	0x20002178

08000c48 <HAL_Delay>:
 8000c48:	b538      	push	{r3, r4, r5, lr}
 8000c4a:	4604      	mov	r4, r0
 8000c4c:	f7ff fff6 	bl	8000c3c <HAL_GetTick>
 8000c50:	4605      	mov	r5, r0
 8000c52:	1c63      	adds	r3, r4, #1
 8000c54:	bf1e      	ittt	ne
 8000c56:	4b04      	ldrne	r3, [pc, #16]	; (8000c68 <HAL_Delay+0x20>)
 8000c58:	781b      	ldrbne	r3, [r3, #0]
 8000c5a:	18e4      	addne	r4, r4, r3
 8000c5c:	f7ff ffee 	bl	8000c3c <HAL_GetTick>
 8000c60:	1b43      	subs	r3, r0, r5
 8000c62:	42a3      	cmp	r3, r4
 8000c64:	d3fa      	bcc.n	8000c5c <HAL_Delay+0x14>
 8000c66:	bd38      	pop	{r3, r4, r5, pc}
 8000c68:	20000040 	.word	0x20000040

08000c6c <HAL_NVIC_SetPriorityGrouping>:
 8000c6c:	4907      	ldr	r1, [pc, #28]	; (8000c8c <HAL_NVIC_SetPriorityGrouping+0x20>)
 8000c6e:	0203      	lsls	r3, r0, #8
 8000c70:	68ca      	ldr	r2, [r1, #12]
 8000c72:	f403 63e0 	and.w	r3, r3, #1792	; 0x700
 8000c76:	f422 62e0 	bic.w	r2, r2, #1792	; 0x700
 8000c7a:	0412      	lsls	r2, r2, #16
 8000c7c:	0c12      	lsrs	r2, r2, #16
 8000c7e:	4313      	orrs	r3, r2
 8000c80:	f043 63bf 	orr.w	r3, r3, #100139008	; 0x5f80000
 8000c84:	f443 3300 	orr.w	r3, r3, #131072	; 0x20000
 8000c88:	60cb      	str	r3, [r1, #12]
 8000c8a:	4770      	bx	lr
 8000c8c:	e000ed00 	.word	0xe000ed00

08000c90 <HAL_NVIC_SetPriority>:
 8000c90:	4b16      	ldr	r3, [pc, #88]	; (8000cec <HAL_NVIC_SetPriority+0x5c>)
 8000c92:	b530      	push	{r4, r5, lr}
 8000c94:	68dc      	ldr	r4, [r3, #12]
 8000c96:	f3c4 2402 	ubfx	r4, r4, #8, #3
 8000c9a:	f1c4 0307 	rsb	r3, r4, #7
 8000c9e:	1d25      	adds	r5, r4, #4
 8000ca0:	2b04      	cmp	r3, #4
 8000ca2:	bf28      	it	cs
 8000ca4:	2304      	movcs	r3, #4
 8000ca6:	2d06      	cmp	r5, #6
 8000ca8:	f04f 35ff 	mov.w	r5, #4294967295
 8000cac:	bf98      	it	ls
 8000cae:	2400      	movls	r4, #0
 8000cb0:	fa05 f303 	lsl.w	r3, r5, r3
 8000cb4:	bf88      	it	hi
 8000cb6:	3c03      	subhi	r4, #3
 8000cb8:	ea21 0303 	bic.w	r3, r1, r3
 8000cbc:	40a3      	lsls	r3, r4
 8000cbe:	fa05 f404 	lsl.w	r4, r5, r4
 8000cc2:	ea22 0204 	bic.w	r2, r2, r4
 8000cc6:	2800      	cmp	r0, #0
 8000cc8:	ea43 0302 	orr.w	r3, r3, r2
 8000ccc:	bfac      	ite	ge
 8000cce:	f100 4060 	addge.w	r0, r0, #3758096384	; 0xe0000000
 8000cd2:	4a07      	ldrlt	r2, [pc, #28]	; (8000cf0 <HAL_NVIC_SetPriority+0x60>)
 8000cd4:	ea4f 1303 	mov.w	r3, r3, lsl #4
 8000cd8:	b2db      	uxtb	r3, r3
 8000cda:	bfab      	itete	ge
 8000cdc:	f500 4061 	addge.w	r0, r0, #57600	; 0xe100
 8000ce0:	f000 000f 	andlt.w	r0, r0, #15
 8000ce4:	f880 3300 	strbge.w	r3, [r0, #768]	; 0x300
 8000ce8:	5413      	strblt	r3, [r2, r0]
 8000cea:	bd30      	pop	{r4, r5, pc}
 8000cec:	e000ed00 	.word	0xe000ed00
 8000cf0:	e000ed14 	.word	0xe000ed14

08000cf4 <HAL_SYSTICK_Config>:
 8000cf4:	3801      	subs	r0, #1
 8000cf6:	f1b0 7f80 	cmp.w	r0, #16777216	; 0x1000000
 8000cfa:	d20b      	bcs.n	8000d14 <HAL_SYSTICK_Config+0x20>
 8000cfc:	f04f 23e0 	mov.w	r3, #3758153728	; 0xe000e000
 8000d00:	21f0      	movs	r1, #240	; 0xf0
 8000d02:	4a05      	ldr	r2, [pc, #20]	; (8000d18 <HAL_SYSTICK_Config+0x24>)
 8000d04:	6158      	str	r0, [r3, #20]
 8000d06:	f882 1023 	strb.w	r1, [r2, #35]	; 0x23
 8000d0a:	2000      	movs	r0, #0
 8000d0c:	2207      	movs	r2, #7
 8000d0e:	6198      	str	r0, [r3, #24]
 8000d10:	611a      	str	r2, [r3, #16]
 8000d12:	4770      	bx	lr
 8000d14:	2001      	movs	r0, #1
 8000d16:	4770      	bx	lr
 8000d18:	e000ed00 	.word	0xe000ed00

08000d1c <HAL_GPIO_Init>:
 8000d1c:	e92d 4ff7 	stmdb	sp!, {r0, r1, r2, r4, r5, r6, r7, r8, r9, sl, fp, lr}
 8000d20:	2200      	movs	r2, #0
 8000d22:	4616      	mov	r6, r2
 8000d24:	4f64      	ldr	r7, [pc, #400]	; (8000eb8 <HAL_GPIO_Init+0x19c>)
 8000d26:	4b65      	ldr	r3, [pc, #404]	; (8000ebc <HAL_GPIO_Init+0x1a0>)
 8000d28:	f8df c194 	ldr.w	ip, [pc, #404]	; 8000ec0 <HAL_GPIO_Init+0x1a4>
 8000d2c:	f8df e194 	ldr.w	lr, [pc, #404]	; 8000ec4 <HAL_GPIO_Init+0x1a8>
 8000d30:	680d      	ldr	r5, [r1, #0]
 8000d32:	fa35 f406 	lsrs.w	r4, r5, r6
 8000d36:	d102      	bne.n	8000d3e <HAL_GPIO_Init+0x22>
 8000d38:	b003      	add	sp, #12
 8000d3a:	e8bd 8ff0 	ldmia.w	sp!, {r4, r5, r6, r7, r8, r9, sl, fp, pc}
 8000d3e:	f04f 0801 	mov.w	r8, #1
 8000d42:	fa08 f806 	lsl.w	r8, r8, r6
 8000d46:	ea05 0408 	and.w	r4, r5, r8
 8000d4a:	ea38 0505 	bics.w	r5, r8, r5
 8000d4e:	d17b      	bne.n	8000e48 <HAL_GPIO_Init+0x12c>
 8000d50:	684d      	ldr	r5, [r1, #4]
 8000d52:	2d03      	cmp	r5, #3
 8000d54:	d807      	bhi.n	8000d66 <HAL_GPIO_Init+0x4a>
 8000d56:	3d01      	subs	r5, #1
 8000d58:	2d02      	cmp	r5, #2
 8000d5a:	f200 8088 	bhi.w	8000e6e <HAL_GPIO_Init+0x152>
 8000d5e:	e8df f005 	tbb	[pc, r5]
 8000d62:	9b96      	.short	0x9b96
 8000d64:	a1          	.byte	0xa1
 8000d65:	00          	.byte	0x00
 8000d66:	2d12      	cmp	r5, #18
 8000d68:	f000 8099 	beq.w	8000e9e <HAL_GPIO_Init+0x182>
 8000d6c:	d86e      	bhi.n	8000e4c <HAL_GPIO_Init+0x130>
 8000d6e:	2d11      	cmp	r5, #17
 8000d70:	f000 808f 	beq.w	8000e92 <HAL_GPIO_Init+0x176>
 8000d74:	2cff      	cmp	r4, #255	; 0xff
 8000d76:	bf98      	it	ls
 8000d78:	4682      	movls	sl, r0
 8000d7a:	f04f 090f 	mov.w	r9, #15
 8000d7e:	bf88      	it	hi
 8000d80:	f100 0a04 	addhi.w	sl, r0, #4
 8000d84:	ea4f 0586 	mov.w	r5, r6, lsl #2
 8000d88:	f8da 8000 	ldr.w	r8, [sl]
 8000d8c:	bf88      	it	hi
 8000d8e:	3d20      	subhi	r5, #32
 8000d90:	fa09 fb05 	lsl.w	fp, r9, r5
 8000d94:	ea28 080b 	bic.w	r8, r8, fp
 8000d98:	fa02 f505 	lsl.w	r5, r2, r5
 8000d9c:	ea48 0505 	orr.w	r5, r8, r5
 8000da0:	f8ca 5000 	str.w	r5, [sl]
 8000da4:	f8d1 a004 	ldr.w	sl, [r1, #4]
 8000da8:	f01a 5f80 	tst.w	sl, #268435456	; 0x10000000
 8000dac:	d04c      	beq.n	8000e48 <HAL_GPIO_Init+0x12c>
 8000dae:	69bd      	ldr	r5, [r7, #24]
 8000db0:	f026 0803 	bic.w	r8, r6, #3
 8000db4:	f045 0501 	orr.w	r5, r5, #1
 8000db8:	61bd      	str	r5, [r7, #24]
 8000dba:	69bd      	ldr	r5, [r7, #24]
 8000dbc:	f108 4880 	add.w	r8, r8, #1073741824	; 0x40000000
 8000dc0:	f005 0501 	and.w	r5, r5, #1
 8000dc4:	9501      	str	r5, [sp, #4]
 8000dc6:	f508 3880 	add.w	r8, r8, #65536	; 0x10000
 8000dca:	f006 0b03 	and.w	fp, r6, #3
 8000dce:	9d01      	ldr	r5, [sp, #4]
 8000dd0:	ea4f 0b8b 	mov.w	fp, fp, lsl #2
 8000dd4:	f8d8 5008 	ldr.w	r5, [r8, #8]
 8000dd8:	fa09 f90b 	lsl.w	r9, r9, fp
 8000ddc:	ea25 0909 	bic.w	r9, r5, r9
 8000de0:	4d39      	ldr	r5, [pc, #228]	; (8000ec8 <HAL_GPIO_Init+0x1ac>)
 8000de2:	42a8      	cmp	r0, r5
 8000de4:	d062      	beq.n	8000eac <HAL_GPIO_Init+0x190>
 8000de6:	f505 6580 	add.w	r5, r5, #1024	; 0x400
 8000dea:	42a8      	cmp	r0, r5
 8000dec:	d060      	beq.n	8000eb0 <HAL_GPIO_Init+0x194>
 8000dee:	f505 6580 	add.w	r5, r5, #1024	; 0x400
 8000df2:	42a8      	cmp	r0, r5
 8000df4:	d05e      	beq.n	8000eb4 <HAL_GPIO_Init+0x198>
 8000df6:	f505 6580 	add.w	r5, r5, #1024	; 0x400
 8000dfa:	42a8      	cmp	r0, r5
 8000dfc:	bf0c      	ite	eq
 8000dfe:	2503      	moveq	r5, #3
 8000e00:	2504      	movne	r5, #4
 8000e02:	fa05 f50b 	lsl.w	r5, r5, fp
 8000e06:	ea45 0509 	orr.w	r5, r5, r9
 8000e0a:	f8c8 5008 	str.w	r5, [r8, #8]
 8000e0e:	681d      	ldr	r5, [r3, #0]
 8000e10:	f41a 3f80 	tst.w	sl, #65536	; 0x10000
 8000e14:	bf14      	ite	ne
 8000e16:	4325      	orrne	r5, r4
 8000e18:	43a5      	biceq	r5, r4
 8000e1a:	601d      	str	r5, [r3, #0]
 8000e1c:	685d      	ldr	r5, [r3, #4]
 8000e1e:	f41a 3f00 	tst.w	sl, #131072	; 0x20000
 8000e22:	bf14      	ite	ne
 8000e24:	4325      	orrne	r5, r4
 8000e26:	43a5      	biceq	r5, r4
 8000e28:	605d      	str	r5, [r3, #4]
 8000e2a:	689d      	ldr	r5, [r3, #8]
 8000e2c:	f41a 1f80 	tst.w	sl, #1048576	; 0x100000
 8000e30:	bf14      	ite	ne
 8000e32:	4325      	orrne	r5, r4
 8000e34:	43a5      	biceq	r5, r4
 8000e36:	609d      	str	r5, [r3, #8]
 8000e38:	68dd      	ldr	r5, [r3, #12]
 8000e3a:	f41a 1f00 	tst.w	sl, #2097152	; 0x200000
 8000e3e:	bf14      	ite	ne
 8000e40:	432c      	orrne	r4, r5
 8000e42:	ea25 0404 	biceq.w	r4, r5, r4
 8000e46:	60dc      	str	r4, [r3, #12]
 8000e48:	3601      	adds	r6, #1
 8000e4a:	e771      	b.n	8000d30 <HAL_GPIO_Init+0x14>
 8000e4c:	f8df 907c 	ldr.w	r9, [pc, #124]	; 8000ecc <HAL_GPIO_Init+0x1b0>
 8000e50:	454d      	cmp	r5, r9
 8000e52:	d00c      	beq.n	8000e6e <HAL_GPIO_Init+0x152>
 8000e54:	d817      	bhi.n	8000e86 <HAL_GPIO_Init+0x16a>
 8000e56:	f5a9 1980 	sub.w	r9, r9, #1048576	; 0x100000
 8000e5a:	454d      	cmp	r5, r9
 8000e5c:	d007      	beq.n	8000e6e <HAL_GPIO_Init+0x152>
 8000e5e:	f509 2970 	add.w	r9, r9, #983040	; 0xf0000
 8000e62:	454d      	cmp	r5, r9
 8000e64:	d003      	beq.n	8000e6e <HAL_GPIO_Init+0x152>
 8000e66:	f5a9 1980 	sub.w	r9, r9, #1048576	; 0x100000
 8000e6a:	454d      	cmp	r5, r9
 8000e6c:	d182      	bne.n	8000d74 <HAL_GPIO_Init+0x58>
 8000e6e:	688a      	ldr	r2, [r1, #8]
 8000e70:	b1d2      	cbz	r2, 8000ea8 <HAL_GPIO_Init+0x18c>
 8000e72:	2a01      	cmp	r2, #1
 8000e74:	bf08      	it	eq
 8000e76:	f8c0 8010 	streq.w	r8, [r0, #16]
 8000e7a:	f04f 0208 	mov.w	r2, #8
 8000e7e:	bf18      	it	ne
 8000e80:	f8c0 8014 	strne.w	r8, [r0, #20]
 8000e84:	e776      	b.n	8000d74 <HAL_GPIO_Init+0x58>
 8000e86:	4565      	cmp	r5, ip
 8000e88:	d0f1      	beq.n	8000e6e <HAL_GPIO_Init+0x152>
 8000e8a:	4575      	cmp	r5, lr
 8000e8c:	e7ee      	b.n	8000e6c <HAL_GPIO_Init+0x150>
 8000e8e:	68ca      	ldr	r2, [r1, #12]
 8000e90:	e770      	b.n	8000d74 <HAL_GPIO_Init+0x58>
 8000e92:	68ca      	ldr	r2, [r1, #12]
 8000e94:	3204      	adds	r2, #4
 8000e96:	e76d      	b.n	8000d74 <HAL_GPIO_Init+0x58>
 8000e98:	68ca      	ldr	r2, [r1, #12]
 8000e9a:	3208      	adds	r2, #8
 8000e9c:	e76a      	b.n	8000d74 <HAL_GPIO_Init+0x58>
 8000e9e:	68ca      	ldr	r2, [r1, #12]
 8000ea0:	320c      	adds	r2, #12
 8000ea2:	e767      	b.n	8000d74 <HAL_GPIO_Init+0x58>
 8000ea4:	2200      	movs	r2, #0
 8000ea6:	e765      	b.n	8000d74 <HAL_GPIO_Init+0x58>
 8000ea8:	2204      	movs	r2, #4
 8000eaa:	e763      	b.n	8000d74 <HAL_GPIO_Init+0x58>
 8000eac:	2500      	movs	r5, #0
 8000eae:	e7a8      	b.n	8000e02 <HAL_GPIO_Init+0xe6>
 8000eb0:	2501      	movs	r5, #1
 8000eb2:	e7a6      	b.n	8000e02 <HAL_GPIO_Init+0xe6>
 8000eb4:	2502      	movs	r5, #2
 8000eb6:	e7a4      	b.n	8000e02 <HAL_GPIO_Init+0xe6>
 8000eb8:	40021000 	.word	0x40021000
 8000ebc:	40010400 	.word	0x40010400
 8000ec0:	10310000 	.word	0x10310000
 8000ec4:	10320000 	.word	0x10320000
 8000ec8:	40010800 	.word	0x40010800
 8000ecc:	10220000 	.word	0x10220000

08000ed0 <HAL_GPIO_WritePin>:
 8000ed0:	b10a      	cbz	r2, 8000ed6 <HAL_GPIO_WritePin+0x6>
 8000ed2:	6101      	str	r1, [r0, #16]
 8000ed4:	4770      	bx	lr
 8000ed6:	0409      	lsls	r1, r1, #16
 8000ed8:	e7fb      	b.n	8000ed2 <HAL_GPIO_WritePin+0x2>
	...

08000edc <HAL_RCC_OscConfig>:
 8000edc:	e92d 41f3 	stmdb	sp!, {r0, r1, r4, r5, r6, r7, r8, lr}
 8000ee0:	4605      	mov	r5, r0
 8000ee2:	b338      	cbz	r0, 8000f34 <HAL_RCC_OscConfig+0x58>
 8000ee4:	6803      	ldr	r3, [r0, #0]
 8000ee6:	07db      	lsls	r3, r3, #31
 8000ee8:	d410      	bmi.n	8000f0c <HAL_RCC_OscConfig+0x30>
 8000eea:	682b      	ldr	r3, [r5, #0]
 8000eec:	079f      	lsls	r7, r3, #30
 8000eee:	d45e      	bmi.n	8000fae <HAL_RCC_OscConfig+0xd2>
 8000ef0:	682b      	ldr	r3, [r5, #0]
 8000ef2:	0719      	lsls	r1, r3, #28
 8000ef4:	f100 8095 	bmi.w	8001022 <HAL_RCC_OscConfig+0x146>
 8000ef8:	682b      	ldr	r3, [r5, #0]
 8000efa:	075a      	lsls	r2, r3, #29
 8000efc:	f100 80c1 	bmi.w	8001082 <HAL_RCC_OscConfig+0x1a6>
 8000f00:	69e8      	ldr	r0, [r5, #28]
 8000f02:	2800      	cmp	r0, #0
 8000f04:	f040 812c 	bne.w	8001160 <HAL_RCC_OscConfig+0x284>
 8000f08:	2000      	movs	r0, #0
 8000f0a:	e029      	b.n	8000f60 <HAL_RCC_OscConfig+0x84>
 8000f0c:	4c90      	ldr	r4, [pc, #576]	; (8001150 <HAL_RCC_OscConfig+0x274>)
 8000f0e:	6863      	ldr	r3, [r4, #4]
 8000f10:	f003 030c 	and.w	r3, r3, #12
 8000f14:	2b04      	cmp	r3, #4
 8000f16:	d007      	beq.n	8000f28 <HAL_RCC_OscConfig+0x4c>
 8000f18:	6863      	ldr	r3, [r4, #4]
 8000f1a:	f003 030c 	and.w	r3, r3, #12
 8000f1e:	2b08      	cmp	r3, #8
 8000f20:	d10a      	bne.n	8000f38 <HAL_RCC_OscConfig+0x5c>
 8000f22:	6863      	ldr	r3, [r4, #4]
 8000f24:	03de      	lsls	r6, r3, #15
 8000f26:	d507      	bpl.n	8000f38 <HAL_RCC_OscConfig+0x5c>
 8000f28:	6823      	ldr	r3, [r4, #0]
 8000f2a:	039c      	lsls	r4, r3, #14
 8000f2c:	d5dd      	bpl.n	8000eea <HAL_RCC_OscConfig+0xe>
 8000f2e:	686b      	ldr	r3, [r5, #4]
 8000f30:	2b00      	cmp	r3, #0
 8000f32:	d1da      	bne.n	8000eea <HAL_RCC_OscConfig+0xe>
 8000f34:	2001      	movs	r0, #1
 8000f36:	e013      	b.n	8000f60 <HAL_RCC_OscConfig+0x84>
 8000f38:	686b      	ldr	r3, [r5, #4]
 8000f3a:	f5b3 3f80 	cmp.w	r3, #65536	; 0x10000
 8000f3e:	d112      	bne.n	8000f66 <HAL_RCC_OscConfig+0x8a>
 8000f40:	6823      	ldr	r3, [r4, #0]
 8000f42:	f443 3380 	orr.w	r3, r3, #65536	; 0x10000
 8000f46:	6023      	str	r3, [r4, #0]
 8000f48:	f7ff fe78 	bl	8000c3c <HAL_GetTick>
 8000f4c:	4606      	mov	r6, r0
 8000f4e:	6823      	ldr	r3, [r4, #0]
 8000f50:	0398      	lsls	r0, r3, #14
 8000f52:	d4ca      	bmi.n	8000eea <HAL_RCC_OscConfig+0xe>
 8000f54:	f7ff fe72 	bl	8000c3c <HAL_GetTick>
 8000f58:	1b80      	subs	r0, r0, r6
 8000f5a:	2864      	cmp	r0, #100	; 0x64
 8000f5c:	d9f7      	bls.n	8000f4e <HAL_RCC_OscConfig+0x72>
 8000f5e:	2003      	movs	r0, #3
 8000f60:	b002      	add	sp, #8
 8000f62:	e8bd 81f0 	ldmia.w	sp!, {r4, r5, r6, r7, r8, pc}
 8000f66:	b99b      	cbnz	r3, 8000f90 <HAL_RCC_OscConfig+0xb4>
 8000f68:	6823      	ldr	r3, [r4, #0]
 8000f6a:	f423 3380 	bic.w	r3, r3, #65536	; 0x10000
 8000f6e:	6023      	str	r3, [r4, #0]
 8000f70:	6823      	ldr	r3, [r4, #0]
 8000f72:	f423 2380 	bic.w	r3, r3, #262144	; 0x40000
 8000f76:	6023      	str	r3, [r4, #0]
 8000f78:	f7ff fe60 	bl	8000c3c <HAL_GetTick>
 8000f7c:	4606      	mov	r6, r0
 8000f7e:	6823      	ldr	r3, [r4, #0]
 8000f80:	0399      	lsls	r1, r3, #14
 8000f82:	d5b2      	bpl.n	8000eea <HAL_RCC_OscConfig+0xe>
 8000f84:	f7ff fe5a 	bl	8000c3c <HAL_GetTick>
 8000f88:	1b80      	subs	r0, r0, r6
 8000f8a:	2864      	cmp	r0, #100	; 0x64
 8000f8c:	d9f7      	bls.n	8000f7e <HAL_RCC_OscConfig+0xa2>
 8000f8e:	e7e6      	b.n	8000f5e <HAL_RCC_OscConfig+0x82>
 8000f90:	f5b3 2fa0 	cmp.w	r3, #327680	; 0x50000
 8000f94:	6823      	ldr	r3, [r4, #0]
 8000f96:	d103      	bne.n	8000fa0 <HAL_RCC_OscConfig+0xc4>
 8000f98:	f443 2380 	orr.w	r3, r3, #262144	; 0x40000
 8000f9c:	6023      	str	r3, [r4, #0]
 8000f9e:	e7cf      	b.n	8000f40 <HAL_RCC_OscConfig+0x64>
 8000fa0:	f423 3380 	bic.w	r3, r3, #65536	; 0x10000
 8000fa4:	6023      	str	r3, [r4, #0]
 8000fa6:	6823      	ldr	r3, [r4, #0]
 8000fa8:	f423 2380 	bic.w	r3, r3, #262144	; 0x40000
 8000fac:	e7cb      	b.n	8000f46 <HAL_RCC_OscConfig+0x6a>
 8000fae:	4c68      	ldr	r4, [pc, #416]	; (8001150 <HAL_RCC_OscConfig+0x274>)
 8000fb0:	6863      	ldr	r3, [r4, #4]
 8000fb2:	f013 0f0c 	tst.w	r3, #12
 8000fb6:	d007      	beq.n	8000fc8 <HAL_RCC_OscConfig+0xec>
 8000fb8:	6863      	ldr	r3, [r4, #4]
 8000fba:	f003 030c 	and.w	r3, r3, #12
 8000fbe:	2b08      	cmp	r3, #8
 8000fc0:	d110      	bne.n	8000fe4 <HAL_RCC_OscConfig+0x108>
 8000fc2:	6863      	ldr	r3, [r4, #4]
 8000fc4:	03da      	lsls	r2, r3, #15
 8000fc6:	d40d      	bmi.n	8000fe4 <HAL_RCC_OscConfig+0x108>
 8000fc8:	6823      	ldr	r3, [r4, #0]
 8000fca:	079b      	lsls	r3, r3, #30
 8000fcc:	d502      	bpl.n	8000fd4 <HAL_RCC_OscConfig+0xf8>
 8000fce:	692b      	ldr	r3, [r5, #16]
 8000fd0:	2b01      	cmp	r3, #1
 8000fd2:	d1af      	bne.n	8000f34 <HAL_RCC_OscConfig+0x58>
 8000fd4:	6823      	ldr	r3, [r4, #0]
 8000fd6:	696a      	ldr	r2, [r5, #20]
 8000fd8:	f023 03f8 	bic.w	r3, r3, #248	; 0xf8
 8000fdc:	ea43 03c2 	orr.w	r3, r3, r2, lsl #3
 8000fe0:	6023      	str	r3, [r4, #0]
 8000fe2:	e785      	b.n	8000ef0 <HAL_RCC_OscConfig+0x14>
 8000fe4:	692a      	ldr	r2, [r5, #16]
 8000fe6:	4b5b      	ldr	r3, [pc, #364]	; (8001154 <HAL_RCC_OscConfig+0x278>)
 8000fe8:	b16a      	cbz	r2, 8001006 <HAL_RCC_OscConfig+0x12a>
 8000fea:	2201      	movs	r2, #1
 8000fec:	601a      	str	r2, [r3, #0]
 8000fee:	f7ff fe25 	bl	8000c3c <HAL_GetTick>
 8000ff2:	4606      	mov	r6, r0
 8000ff4:	6823      	ldr	r3, [r4, #0]
 8000ff6:	079f      	lsls	r7, r3, #30
 8000ff8:	d4ec      	bmi.n	8000fd4 <HAL_RCC_OscConfig+0xf8>
 8000ffa:	f7ff fe1f 	bl	8000c3c <HAL_GetTick>
 8000ffe:	1b80      	subs	r0, r0, r6
 8001000:	2802      	cmp	r0, #2
 8001002:	d9f7      	bls.n	8000ff4 <HAL_RCC_OscConfig+0x118>
 8001004:	e7ab      	b.n	8000f5e <HAL_RCC_OscConfig+0x82>
 8001006:	601a      	str	r2, [r3, #0]
 8001008:	f7ff fe18 	bl	8000c3c <HAL_GetTick>
 800100c:	4606      	mov	r6, r0
 800100e:	6823      	ldr	r3, [r4, #0]
 8001010:	0798      	lsls	r0, r3, #30
 8001012:	f57f af6d 	bpl.w	8000ef0 <HAL_RCC_OscConfig+0x14>
 8001016:	f7ff fe11 	bl	8000c3c <HAL_GetTick>
 800101a:	1b80      	subs	r0, r0, r6
 800101c:	2802      	cmp	r0, #2
 800101e:	d9f6      	bls.n	800100e <HAL_RCC_OscConfig+0x132>
 8001020:	e79d      	b.n	8000f5e <HAL_RCC_OscConfig+0x82>
 8001022:	69aa      	ldr	r2, [r5, #24]
 8001024:	4e4a      	ldr	r6, [pc, #296]	; (8001150 <HAL_RCC_OscConfig+0x274>)
 8001026:	4b4b      	ldr	r3, [pc, #300]	; (8001154 <HAL_RCC_OscConfig+0x278>)
 8001028:	b1e2      	cbz	r2, 8001064 <HAL_RCC_OscConfig+0x188>
 800102a:	2201      	movs	r2, #1
 800102c:	f8c3 2480 	str.w	r2, [r3, #1152]	; 0x480
 8001030:	f7ff fe04 	bl	8000c3c <HAL_GetTick>
 8001034:	4604      	mov	r4, r0
 8001036:	6a73      	ldr	r3, [r6, #36]	; 0x24
 8001038:	079b      	lsls	r3, r3, #30
 800103a:	d50d      	bpl.n	8001058 <HAL_RCC_OscConfig+0x17c>
 800103c:	f44f 52fa 	mov.w	r2, #8000	; 0x1f40
 8001040:	4b45      	ldr	r3, [pc, #276]	; (8001158 <HAL_RCC_OscConfig+0x27c>)
 8001042:	681b      	ldr	r3, [r3, #0]
 8001044:	fbb3 f3f2 	udiv	r3, r3, r2
 8001048:	9301      	str	r3, [sp, #4]
 800104a:	bf00      	nop
 800104c:	9b01      	ldr	r3, [sp, #4]
 800104e:	1e5a      	subs	r2, r3, #1
 8001050:	9201      	str	r2, [sp, #4]
 8001052:	2b00      	cmp	r3, #0
 8001054:	d1f9      	bne.n	800104a <HAL_RCC_OscConfig+0x16e>
 8001056:	e74f      	b.n	8000ef8 <HAL_RCC_OscConfig+0x1c>
 8001058:	f7ff fdf0 	bl	8000c3c <HAL_GetTick>
 800105c:	1b00      	subs	r0, r0, r4
 800105e:	2802      	cmp	r0, #2
 8001060:	d9e9      	bls.n	8001036 <HAL_RCC_OscConfig+0x15a>
 8001062:	e77c      	b.n	8000f5e <HAL_RCC_OscConfig+0x82>
 8001064:	f8c3 2480 	str.w	r2, [r3, #1152]	; 0x480
 8001068:	f7ff fde8 	bl	8000c3c <HAL_GetTick>
 800106c:	4604      	mov	r4, r0
 800106e:	6a73      	ldr	r3, [r6, #36]	; 0x24
 8001070:	079f      	lsls	r7, r3, #30
 8001072:	f57f af41 	bpl.w	8000ef8 <HAL_RCC_OscConfig+0x1c>
 8001076:	f7ff fde1 	bl	8000c3c <HAL_GetTick>
 800107a:	1b00      	subs	r0, r0, r4
 800107c:	2802      	cmp	r0, #2
 800107e:	d9f6      	bls.n	800106e <HAL_RCC_OscConfig+0x192>
 8001080:	e76d      	b.n	8000f5e <HAL_RCC_OscConfig+0x82>
 8001082:	4c33      	ldr	r4, [pc, #204]	; (8001150 <HAL_RCC_OscConfig+0x274>)
 8001084:	69e3      	ldr	r3, [r4, #28]
 8001086:	00d8      	lsls	r0, r3, #3
 8001088:	d424      	bmi.n	80010d4 <HAL_RCC_OscConfig+0x1f8>
 800108a:	2701      	movs	r7, #1
 800108c:	69e3      	ldr	r3, [r4, #28]
 800108e:	f043 5380 	orr.w	r3, r3, #268435456	; 0x10000000
 8001092:	61e3      	str	r3, [r4, #28]
 8001094:	69e3      	ldr	r3, [r4, #28]
 8001096:	f003 5380 	and.w	r3, r3, #268435456	; 0x10000000
 800109a:	9300      	str	r3, [sp, #0]
 800109c:	9b00      	ldr	r3, [sp, #0]
 800109e:	4e2f      	ldr	r6, [pc, #188]	; (800115c <HAL_RCC_OscConfig+0x280>)
 80010a0:	6833      	ldr	r3, [r6, #0]
 80010a2:	05d9      	lsls	r1, r3, #23
 80010a4:	d518      	bpl.n	80010d8 <HAL_RCC_OscConfig+0x1fc>
 80010a6:	68eb      	ldr	r3, [r5, #12]
 80010a8:	2b01      	cmp	r3, #1
 80010aa:	d126      	bne.n	80010fa <HAL_RCC_OscConfig+0x21e>
 80010ac:	6a23      	ldr	r3, [r4, #32]
 80010ae:	f043 0301 	orr.w	r3, r3, #1
 80010b2:	6223      	str	r3, [r4, #32]
 80010b4:	f7ff fdc2 	bl	8000c3c <HAL_GetTick>
 80010b8:	f241 3888 	movw	r8, #5000	; 0x1388
 80010bc:	4606      	mov	r6, r0
 80010be:	6a23      	ldr	r3, [r4, #32]
 80010c0:	079b      	lsls	r3, r3, #30
 80010c2:	d53f      	bpl.n	8001144 <HAL_RCC_OscConfig+0x268>
 80010c4:	2f00      	cmp	r7, #0
 80010c6:	f43f af1b 	beq.w	8000f00 <HAL_RCC_OscConfig+0x24>
 80010ca:	69e3      	ldr	r3, [r4, #28]
 80010cc:	f023 5380 	bic.w	r3, r3, #268435456	; 0x10000000
 80010d0:	61e3      	str	r3, [r4, #28]
 80010d2:	e715      	b.n	8000f00 <HAL_RCC_OscConfig+0x24>
 80010d4:	2700      	movs	r7, #0
 80010d6:	e7e2      	b.n	800109e <HAL_RCC_OscConfig+0x1c2>
 80010d8:	6833      	ldr	r3, [r6, #0]
 80010da:	f443 7380 	orr.w	r3, r3, #256	; 0x100
 80010de:	6033      	str	r3, [r6, #0]
 80010e0:	f7ff fdac 	bl	8000c3c <HAL_GetTick>
 80010e4:	4680      	mov	r8, r0
 80010e6:	6833      	ldr	r3, [r6, #0]
 80010e8:	05da      	lsls	r2, r3, #23
 80010ea:	d4dc      	bmi.n	80010a6 <HAL_RCC_OscConfig+0x1ca>
 80010ec:	f7ff fda6 	bl	8000c3c <HAL_GetTick>
 80010f0:	eba0 0008 	sub.w	r0, r0, r8
 80010f4:	2864      	cmp	r0, #100	; 0x64
 80010f6:	d9f6      	bls.n	80010e6 <HAL_RCC_OscConfig+0x20a>
 80010f8:	e731      	b.n	8000f5e <HAL_RCC_OscConfig+0x82>
 80010fa:	b9ab      	cbnz	r3, 8001128 <HAL_RCC_OscConfig+0x24c>
 80010fc:	6a23      	ldr	r3, [r4, #32]
 80010fe:	f241 3888 	movw	r8, #5000	; 0x1388
 8001102:	f023 0301 	bic.w	r3, r3, #1
 8001106:	6223      	str	r3, [r4, #32]
 8001108:	6a23      	ldr	r3, [r4, #32]
 800110a:	f023 0304 	bic.w	r3, r3, #4
 800110e:	6223      	str	r3, [r4, #32]
 8001110:	f7ff fd94 	bl	8000c3c <HAL_GetTick>
 8001114:	4606      	mov	r6, r0
 8001116:	6a23      	ldr	r3, [r4, #32]
 8001118:	0798      	lsls	r0, r3, #30
 800111a:	d5d3      	bpl.n	80010c4 <HAL_RCC_OscConfig+0x1e8>
 800111c:	f7ff fd8e 	bl	8000c3c <HAL_GetTick>
 8001120:	1b80      	subs	r0, r0, r6
 8001122:	4540      	cmp	r0, r8
 8001124:	d9f7      	bls.n	8001116 <HAL_RCC_OscConfig+0x23a>
 8001126:	e71a      	b.n	8000f5e <HAL_RCC_OscConfig+0x82>
 8001128:	2b05      	cmp	r3, #5
 800112a:	6a23      	ldr	r3, [r4, #32]
 800112c:	d103      	bne.n	8001136 <HAL_RCC_OscConfig+0x25a>
 800112e:	f043 0304 	orr.w	r3, r3, #4
 8001132:	6223      	str	r3, [r4, #32]
 8001134:	e7ba      	b.n	80010ac <HAL_RCC_OscConfig+0x1d0>
 8001136:	f023 0301 	bic.w	r3, r3, #1
 800113a:	6223      	str	r3, [r4, #32]
 800113c:	6a23      	ldr	r3, [r4, #32]
 800113e:	f023 0304 	bic.w	r3, r3, #4
 8001142:	e7b6      	b.n	80010b2 <HAL_RCC_OscConfig+0x1d6>
 8001144:	f7ff fd7a 	bl	8000c3c <HAL_GetTick>
 8001148:	1b80      	subs	r0, r0, r6
 800114a:	4540      	cmp	r0, r8
 800114c:	d9b7      	bls.n	80010be <HAL_RCC_OscConfig+0x1e2>
 800114e:	e706      	b.n	8000f5e <HAL_RCC_OscConfig+0x82>
 8001150:	40021000 	.word	0x40021000
 8001154:	42420000 	.word	0x42420000
 8001158:	2000003c 	.word	0x2000003c
 800115c:	40007000 	.word	0x40007000
 8001160:	4c2a      	ldr	r4, [pc, #168]	; (800120c <HAL_RCC_OscConfig+0x330>)
 8001162:	6863      	ldr	r3, [r4, #4]
 8001164:	f003 030c 	and.w	r3, r3, #12
 8001168:	2b08      	cmp	r3, #8
 800116a:	d03e      	beq.n	80011ea <HAL_RCC_OscConfig+0x30e>
 800116c:	2200      	movs	r2, #0
 800116e:	4b28      	ldr	r3, [pc, #160]	; (8001210 <HAL_RCC_OscConfig+0x334>)
 8001170:	2802      	cmp	r0, #2
 8001172:	661a      	str	r2, [r3, #96]	; 0x60
 8001174:	d12c      	bne.n	80011d0 <HAL_RCC_OscConfig+0x2f4>
 8001176:	f7ff fd61 	bl	8000c3c <HAL_GetTick>
 800117a:	4606      	mov	r6, r0
 800117c:	6823      	ldr	r3, [r4, #0]
 800117e:	0199      	lsls	r1, r3, #6
 8001180:	d420      	bmi.n	80011c4 <HAL_RCC_OscConfig+0x2e8>
 8001182:	6a2b      	ldr	r3, [r5, #32]
 8001184:	f5b3 3f80 	cmp.w	r3, #65536	; 0x10000
 8001188:	d105      	bne.n	8001196 <HAL_RCC_OscConfig+0x2ba>
 800118a:	6862      	ldr	r2, [r4, #4]
 800118c:	68a9      	ldr	r1, [r5, #8]
 800118e:	f422 3200 	bic.w	r2, r2, #131072	; 0x20000
 8001192:	430a      	orrs	r2, r1
 8001194:	6062      	str	r2, [r4, #4]
 8001196:	6a69      	ldr	r1, [r5, #36]	; 0x24
 8001198:	6862      	ldr	r2, [r4, #4]
 800119a:	430b      	orrs	r3, r1
 800119c:	f422 1274 	bic.w	r2, r2, #3997696	; 0x3d0000
 80011a0:	4313      	orrs	r3, r2
 80011a2:	2201      	movs	r2, #1
 80011a4:	6063      	str	r3, [r4, #4]
 80011a6:	4b1a      	ldr	r3, [pc, #104]	; (8001210 <HAL_RCC_OscConfig+0x334>)
 80011a8:	661a      	str	r2, [r3, #96]	; 0x60
 80011aa:	f7ff fd47 	bl	8000c3c <HAL_GetTick>
 80011ae:	4605      	mov	r5, r0
 80011b0:	6823      	ldr	r3, [r4, #0]
 80011b2:	019a      	lsls	r2, r3, #6
 80011b4:	f53f aea8 	bmi.w	8000f08 <HAL_RCC_OscConfig+0x2c>
 80011b8:	f7ff fd40 	bl	8000c3c <HAL_GetTick>
 80011bc:	1b40      	subs	r0, r0, r5
 80011be:	2802      	cmp	r0, #2
 80011c0:	d9f6      	bls.n	80011b0 <HAL_RCC_OscConfig+0x2d4>
 80011c2:	e6cc      	b.n	8000f5e <HAL_RCC_OscConfig+0x82>
 80011c4:	f7ff fd3a 	bl	8000c3c <HAL_GetTick>
 80011c8:	1b80      	subs	r0, r0, r6
 80011ca:	2802      	cmp	r0, #2
 80011cc:	d9d6      	bls.n	800117c <HAL_RCC_OscConfig+0x2a0>
 80011ce:	e6c6      	b.n	8000f5e <HAL_RCC_OscConfig+0x82>
 80011d0:	f7ff fd34 	bl	8000c3c <HAL_GetTick>
 80011d4:	4605      	mov	r5, r0
 80011d6:	6823      	ldr	r3, [r4, #0]
 80011d8:	019b      	lsls	r3, r3, #6
 80011da:	f57f ae95 	bpl.w	8000f08 <HAL_RCC_OscConfig+0x2c>
 80011de:	f7ff fd2d 	bl	8000c3c <HAL_GetTick>
 80011e2:	1b40      	subs	r0, r0, r5
 80011e4:	2802      	cmp	r0, #2
 80011e6:	d9f6      	bls.n	80011d6 <HAL_RCC_OscConfig+0x2fa>
 80011e8:	e6b9      	b.n	8000f5e <HAL_RCC_OscConfig+0x82>
 80011ea:	2801      	cmp	r0, #1
 80011ec:	f43f aeb8 	beq.w	8000f60 <HAL_RCC_OscConfig+0x84>
 80011f0:	6863      	ldr	r3, [r4, #4]
 80011f2:	6a2a      	ldr	r2, [r5, #32]
 80011f4:	f403 3180 	and.w	r1, r3, #65536	; 0x10000
 80011f8:	4291      	cmp	r1, r2
 80011fa:	f47f ae9b 	bne.w	8000f34 <HAL_RCC_OscConfig+0x58>
 80011fe:	6a6a      	ldr	r2, [r5, #36]	; 0x24
 8001200:	f403 1370 	and.w	r3, r3, #3932160	; 0x3c0000
 8001204:	4293      	cmp	r3, r2
 8001206:	f43f ae7f 	beq.w	8000f08 <HAL_RCC_OscConfig+0x2c>
 800120a:	e693      	b.n	8000f34 <HAL_RCC_OscConfig+0x58>
 800120c:	40021000 	.word	0x40021000
 8001210:	42420000 	.word	0x42420000

08001214 <HAL_RCC_GetSysClockFreq>:
 8001214:	b530      	push	{r4, r5, lr}
 8001216:	4b18      	ldr	r3, [pc, #96]	; (8001278 <HAL_RCC_GetSysClockFreq+0x64>)
 8001218:	b087      	sub	sp, #28
 800121a:	ac02      	add	r4, sp, #8
 800121c:	f103 0510 	add.w	r5, r3, #16
 8001220:	4622      	mov	r2, r4
 8001222:	6818      	ldr	r0, [r3, #0]
 8001224:	6859      	ldr	r1, [r3, #4]
 8001226:	3308      	adds	r3, #8
 8001228:	c203      	stmia	r2!, {r0, r1}
 800122a:	42ab      	cmp	r3, r5
 800122c:	4614      	mov	r4, r2
 800122e:	d1f7      	bne.n	8001220 <HAL_RCC_GetSysClockFreq+0xc>
 8001230:	f240 2301 	movw	r3, #513	; 0x201
 8001234:	4911      	ldr	r1, [pc, #68]	; (800127c <HAL_RCC_GetSysClockFreq+0x68>)
 8001236:	f8ad 3004 	strh.w	r3, [sp, #4]
 800123a:	684b      	ldr	r3, [r1, #4]
 800123c:	f003 020c 	and.w	r2, r3, #12
 8001240:	2a08      	cmp	r2, #8
 8001242:	d117      	bne.n	8001274 <HAL_RCC_GetSysClockFreq+0x60>
 8001244:	f3c3 4283 	ubfx	r2, r3, #18, #4
 8001248:	3218      	adds	r2, #24
 800124a:	446a      	add	r2, sp
 800124c:	03db      	lsls	r3, r3, #15
 800124e:	f812 0c10 	ldrb.w	r0, [r2, #-16]
 8001252:	d50c      	bpl.n	800126e <HAL_RCC_GetSysClockFreq+0x5a>
 8001254:	684b      	ldr	r3, [r1, #4]
 8001256:	4a0a      	ldr	r2, [pc, #40]	; (8001280 <HAL_RCC_GetSysClockFreq+0x6c>)
 8001258:	f3c3 4340 	ubfx	r3, r3, #17, #1
 800125c:	4350      	muls	r0, r2
 800125e:	3318      	adds	r3, #24
 8001260:	446b      	add	r3, sp
 8001262:	f813 3c14 	ldrb.w	r3, [r3, #-20]
 8001266:	fbb0 f0f3 	udiv	r0, r0, r3
 800126a:	b007      	add	sp, #28
 800126c:	bd30      	pop	{r4, r5, pc}
 800126e:	4b05      	ldr	r3, [pc, #20]	; (8001284 <HAL_RCC_GetSysClockFreq+0x70>)
 8001270:	4358      	muls	r0, r3
 8001272:	e7fa      	b.n	800126a <HAL_RCC_GetSysClockFreq+0x56>
 8001274:	4802      	ldr	r0, [pc, #8]	; (8001280 <HAL_RCC_GetSysClockFreq+0x6c>)
 8001276:	e7f8      	b.n	800126a <HAL_RCC_GetSysClockFreq+0x56>
 8001278:	080032f4 	.word	0x080032f4
 800127c:	40021000 	.word	0x40021000
 8001280:	007a1200 	.word	0x007a1200
 8001284:	003d0900 	.word	0x003d0900

08001288 <HAL_RCC_ClockConfig>:
 8001288:	e92d 41f0 	stmdb	sp!, {r4, r5, r6, r7, r8, lr}
 800128c:	460d      	mov	r5, r1
 800128e:	4604      	mov	r4, r0
 8001290:	b910      	cbnz	r0, 8001298 <HAL_RCC_ClockConfig+0x10>
 8001292:	2001      	movs	r0, #1
 8001294:	e8bd 81f0 	ldmia.w	sp!, {r4, r5, r6, r7, r8, pc}
 8001298:	4a44      	ldr	r2, [pc, #272]	; (80013ac <HAL_RCC_ClockConfig+0x124>)
 800129a:	6813      	ldr	r3, [r2, #0]
 800129c:	f003 0307 	and.w	r3, r3, #7
 80012a0:	428b      	cmp	r3, r1
 80012a2:	d328      	bcc.n	80012f6 <HAL_RCC_ClockConfig+0x6e>
 80012a4:	6821      	ldr	r1, [r4, #0]
 80012a6:	078e      	lsls	r6, r1, #30
 80012a8:	d430      	bmi.n	800130c <HAL_RCC_ClockConfig+0x84>
 80012aa:	07ca      	lsls	r2, r1, #31
 80012ac:	d443      	bmi.n	8001336 <HAL_RCC_ClockConfig+0xae>
 80012ae:	4a3f      	ldr	r2, [pc, #252]	; (80013ac <HAL_RCC_ClockConfig+0x124>)
 80012b0:	6813      	ldr	r3, [r2, #0]
 80012b2:	f003 0307 	and.w	r3, r3, #7
 80012b6:	42ab      	cmp	r3, r5
 80012b8:	d865      	bhi.n	8001386 <HAL_RCC_ClockConfig+0xfe>
 80012ba:	6822      	ldr	r2, [r4, #0]
 80012bc:	4d3c      	ldr	r5, [pc, #240]	; (80013b0 <HAL_RCC_ClockConfig+0x128>)
 80012be:	f012 0f04 	tst.w	r2, #4
 80012c2:	d16c      	bne.n	800139e <HAL_RCC_ClockConfig+0x116>
 80012c4:	0713      	lsls	r3, r2, #28
 80012c6:	d506      	bpl.n	80012d6 <HAL_RCC_ClockConfig+0x4e>
 80012c8:	686b      	ldr	r3, [r5, #4]
 80012ca:	6922      	ldr	r2, [r4, #16]
 80012cc:	f423 5360 	bic.w	r3, r3, #14336	; 0x3800
 80012d0:	ea43 03c2 	orr.w	r3, r3, r2, lsl #3
 80012d4:	606b      	str	r3, [r5, #4]
 80012d6:	f7ff ff9d 	bl	8001214 <HAL_RCC_GetSysClockFreq>
 80012da:	686b      	ldr	r3, [r5, #4]
 80012dc:	4a35      	ldr	r2, [pc, #212]	; (80013b4 <HAL_RCC_ClockConfig+0x12c>)
 80012de:	f3c3 1303 	ubfx	r3, r3, #4, #4
 80012e2:	5cd3      	ldrb	r3, [r2, r3]
 80012e4:	40d8      	lsrs	r0, r3
 80012e6:	4b34      	ldr	r3, [pc, #208]	; (80013b8 <HAL_RCC_ClockConfig+0x130>)
 80012e8:	6018      	str	r0, [r3, #0]
 80012ea:	4b34      	ldr	r3, [pc, #208]	; (80013bc <HAL_RCC_ClockConfig+0x134>)
 80012ec:	6818      	ldr	r0, [r3, #0]
 80012ee:	f7ff fc63 	bl	8000bb8 <HAL_InitTick>
 80012f2:	2000      	movs	r0, #0
 80012f4:	e7ce      	b.n	8001294 <HAL_RCC_ClockConfig+0xc>
 80012f6:	6813      	ldr	r3, [r2, #0]
 80012f8:	f023 0307 	bic.w	r3, r3, #7
 80012fc:	430b      	orrs	r3, r1
 80012fe:	6013      	str	r3, [r2, #0]
 8001300:	6813      	ldr	r3, [r2, #0]
 8001302:	f003 0307 	and.w	r3, r3, #7
 8001306:	428b      	cmp	r3, r1
 8001308:	d1c3      	bne.n	8001292 <HAL_RCC_ClockConfig+0xa>
 800130a:	e7cb      	b.n	80012a4 <HAL_RCC_ClockConfig+0x1c>
 800130c:	4b28      	ldr	r3, [pc, #160]	; (80013b0 <HAL_RCC_ClockConfig+0x128>)
 800130e:	f011 0f04 	tst.w	r1, #4
 8001312:	bf1e      	ittt	ne
 8001314:	685a      	ldrne	r2, [r3, #4]
 8001316:	f442 62e0 	orrne.w	r2, r2, #1792	; 0x700
 800131a:	605a      	strne	r2, [r3, #4]
 800131c:	0708      	lsls	r0, r1, #28
 800131e:	bf42      	ittt	mi
 8001320:	685a      	ldrmi	r2, [r3, #4]
 8001322:	f442 5260 	orrmi.w	r2, r2, #14336	; 0x3800
 8001326:	605a      	strmi	r2, [r3, #4]
 8001328:	685a      	ldr	r2, [r3, #4]
 800132a:	68a0      	ldr	r0, [r4, #8]
 800132c:	f022 02f0 	bic.w	r2, r2, #240	; 0xf0
 8001330:	4302      	orrs	r2, r0
 8001332:	605a      	str	r2, [r3, #4]
 8001334:	e7b9      	b.n	80012aa <HAL_RCC_ClockConfig+0x22>
 8001336:	6862      	ldr	r2, [r4, #4]
 8001338:	4e1d      	ldr	r6, [pc, #116]	; (80013b0 <HAL_RCC_ClockConfig+0x128>)
 800133a:	2a01      	cmp	r2, #1
 800133c:	6833      	ldr	r3, [r6, #0]
 800133e:	d11a      	bne.n	8001376 <HAL_RCC_ClockConfig+0xee>
 8001340:	f413 3f00 	tst.w	r3, #131072	; 0x20000
 8001344:	d0a5      	beq.n	8001292 <HAL_RCC_ClockConfig+0xa>
 8001346:	6873      	ldr	r3, [r6, #4]
 8001348:	f241 3888 	movw	r8, #5000	; 0x1388
 800134c:	f023 0303 	bic.w	r3, r3, #3
 8001350:	4313      	orrs	r3, r2
 8001352:	6073      	str	r3, [r6, #4]
 8001354:	f7ff fc72 	bl	8000c3c <HAL_GetTick>
 8001358:	4607      	mov	r7, r0
 800135a:	6873      	ldr	r3, [r6, #4]
 800135c:	6862      	ldr	r2, [r4, #4]
 800135e:	f003 030c 	and.w	r3, r3, #12
 8001362:	ebb3 0f82 	cmp.w	r3, r2, lsl #2
 8001366:	d0a2      	beq.n	80012ae <HAL_RCC_ClockConfig+0x26>
 8001368:	f7ff fc68 	bl	8000c3c <HAL_GetTick>
 800136c:	1bc0      	subs	r0, r0, r7
 800136e:	4540      	cmp	r0, r8
 8001370:	d9f3      	bls.n	800135a <HAL_RCC_ClockConfig+0xd2>
 8001372:	2003      	movs	r0, #3
 8001374:	e78e      	b.n	8001294 <HAL_RCC_ClockConfig+0xc>
 8001376:	2a02      	cmp	r2, #2
 8001378:	d102      	bne.n	8001380 <HAL_RCC_ClockConfig+0xf8>
 800137a:	f013 7f00 	tst.w	r3, #33554432	; 0x2000000
 800137e:	e7e1      	b.n	8001344 <HAL_RCC_ClockConfig+0xbc>
 8001380:	f013 0f02 	tst.w	r3, #2
 8001384:	e7de      	b.n	8001344 <HAL_RCC_ClockConfig+0xbc>
 8001386:	6813      	ldr	r3, [r2, #0]
 8001388:	f023 0307 	bic.w	r3, r3, #7
 800138c:	432b      	orrs	r3, r5
 800138e:	6013      	str	r3, [r2, #0]
 8001390:	6813      	ldr	r3, [r2, #0]
 8001392:	f003 0307 	and.w	r3, r3, #7
 8001396:	42ab      	cmp	r3, r5
 8001398:	f47f af7b 	bne.w	8001292 <HAL_RCC_ClockConfig+0xa>
 800139c:	e78d      	b.n	80012ba <HAL_RCC_ClockConfig+0x32>
 800139e:	686b      	ldr	r3, [r5, #4]
 80013a0:	68e1      	ldr	r1, [r4, #12]
 80013a2:	f423 63e0 	bic.w	r3, r3, #1792	; 0x700
 80013a6:	430b      	orrs	r3, r1
 80013a8:	606b      	str	r3, [r5, #4]
 80013aa:	e78b      	b.n	80012c4 <HAL_RCC_ClockConfig+0x3c>
 80013ac:	40022000 	.word	0x40022000
 80013b0:	40021000 	.word	0x40021000
 80013b4:	080032dc 	.word	0x080032dc
 80013b8:	2000003c 	.word	0x2000003c
 80013bc:	20000044 	.word	0x20000044

080013c0 <HAL_RCC_GetPCLK1Freq>:
 80013c0:	4b04      	ldr	r3, [pc, #16]	; (80013d4 <HAL_RCC_GetPCLK1Freq+0x14>)
 80013c2:	4a05      	ldr	r2, [pc, #20]	; (80013d8 <HAL_RCC_GetPCLK1Freq+0x18>)
 80013c4:	685b      	ldr	r3, [r3, #4]
 80013c6:	f3c3 2302 	ubfx	r3, r3, #8, #3
 80013ca:	5cd3      	ldrb	r3, [r2, r3]
 80013cc:	4a03      	ldr	r2, [pc, #12]	; (80013dc <HAL_RCC_GetPCLK1Freq+0x1c>)
 80013ce:	6810      	ldr	r0, [r2, #0]
 80013d0:	40d8      	lsrs	r0, r3
 80013d2:	4770      	bx	lr
 80013d4:	40021000 	.word	0x40021000
 80013d8:	080032ec 	.word	0x080032ec
 80013dc:	2000003c 	.word	0x2000003c

080013e0 <HAL_RCC_GetPCLK2Freq>:
 80013e0:	4b04      	ldr	r3, [pc, #16]	; (80013f4 <HAL_RCC_GetPCLK2Freq+0x14>)
 80013e2:	4a05      	ldr	r2, [pc, #20]	; (80013f8 <HAL_RCC_GetPCLK2Freq+0x18>)
 80013e4:	685b      	ldr	r3, [r3, #4]
 80013e6:	f3c3 23c2 	ubfx	r3, r3, #11, #3
 80013ea:	5cd3      	ldrb	r3, [r2, r3]
 80013ec:	4a03      	ldr	r2, [pc, #12]	; (80013fc <HAL_RCC_GetPCLK2Freq+0x1c>)
 80013ee:	6810      	ldr	r0, [r2, #0]
 80013f0:	40d8      	lsrs	r0, r3
 80013f2:	4770      	bx	lr
 80013f4:	40021000 	.word	0x40021000
 80013f8:	080032ec 	.word	0x080032ec
 80013fc:	2000003c 	.word	0x2000003c

08001400 <SPI_WaitFlagStateUntilTimeout.constprop.0>:
 8001400:	e92d 41f3 	stmdb	sp!, {r0, r1, r4, r5, r6, r7, r8, lr}
 8001404:	461c      	mov	r4, r3
 8001406:	4616      	mov	r6, r2
 8001408:	460f      	mov	r7, r1
 800140a:	4605      	mov	r5, r0
 800140c:	f7ff fc16 	bl	8000c3c <HAL_GetTick>
 8001410:	4434      	add	r4, r6
 8001412:	1a24      	subs	r4, r4, r0
 8001414:	f7ff fc12 	bl	8000c3c <HAL_GetTick>
 8001418:	4680      	mov	r8, r0
 800141a:	4b23      	ldr	r3, [pc, #140]	; (80014a8 <SPI_WaitFlagStateUntilTimeout.constprop.0+0xa8>)
 800141c:	681b      	ldr	r3, [r3, #0]
 800141e:	f3c3 33cb 	ubfx	r3, r3, #15, #12
 8001422:	4363      	muls	r3, r4
 8001424:	682a      	ldr	r2, [r5, #0]
 8001426:	9301      	str	r3, [sp, #4]
 8001428:	6893      	ldr	r3, [r2, #8]
 800142a:	ea37 0303 	bics.w	r3, r7, r3
 800142e:	d001      	beq.n	8001434 <SPI_WaitFlagStateUntilTimeout.constprop.0+0x34>
 8001430:	2000      	movs	r0, #0
 8001432:	e02e      	b.n	8001492 <SPI_WaitFlagStateUntilTimeout.constprop.0+0x92>
 8001434:	1c73      	adds	r3, r6, #1
 8001436:	d0f7      	beq.n	8001428 <SPI_WaitFlagStateUntilTimeout.constprop.0+0x28>
 8001438:	f7ff fc00 	bl	8000c3c <HAL_GetTick>
 800143c:	eba0 0008 	sub.w	r0, r0, r8
 8001440:	42a0      	cmp	r0, r4
 8001442:	d329      	bcc.n	8001498 <SPI_WaitFlagStateUntilTimeout.constprop.0+0x98>
 8001444:	682b      	ldr	r3, [r5, #0]
 8001446:	685a      	ldr	r2, [r3, #4]
 8001448:	f022 02e0 	bic.w	r2, r2, #224	; 0xe0
 800144c:	605a      	str	r2, [r3, #4]
 800144e:	686a      	ldr	r2, [r5, #4]
 8001450:	f5b2 7f82 	cmp.w	r2, #260	; 0x104
 8001454:	d10a      	bne.n	800146c <SPI_WaitFlagStateUntilTimeout.constprop.0+0x6c>
 8001456:	68aa      	ldr	r2, [r5, #8]
 8001458:	f5b2 4f00 	cmp.w	r2, #32768	; 0x8000
 800145c:	d002      	beq.n	8001464 <SPI_WaitFlagStateUntilTimeout.constprop.0+0x64>
 800145e:	f5b2 6f80 	cmp.w	r2, #1024	; 0x400
 8001462:	d103      	bne.n	800146c <SPI_WaitFlagStateUntilTimeout.constprop.0+0x6c>
 8001464:	681a      	ldr	r2, [r3, #0]
 8001466:	f022 0240 	bic.w	r2, r2, #64	; 0x40
 800146a:	601a      	str	r2, [r3, #0]
 800146c:	6aaa      	ldr	r2, [r5, #40]	; 0x28
 800146e:	f5b2 5f00 	cmp.w	r2, #8192	; 0x2000
 8001472:	d107      	bne.n	8001484 <SPI_WaitFlagStateUntilTimeout.constprop.0+0x84>
 8001474:	681a      	ldr	r2, [r3, #0]
 8001476:	f422 5200 	bic.w	r2, r2, #8192	; 0x2000
 800147a:	601a      	str	r2, [r3, #0]
 800147c:	681a      	ldr	r2, [r3, #0]
 800147e:	f442 5200 	orr.w	r2, r2, #8192	; 0x2000
 8001482:	601a      	str	r2, [r3, #0]
 8001484:	2301      	movs	r3, #1
 8001486:	f885 3051 	strb.w	r3, [r5, #81]	; 0x51
 800148a:	2300      	movs	r3, #0
 800148c:	2003      	movs	r0, #3
 800148e:	f885 3050 	strb.w	r3, [r5, #80]	; 0x50
 8001492:	b002      	add	sp, #8
 8001494:	e8bd 81f0 	ldmia.w	sp!, {r4, r5, r6, r7, r8, pc}
 8001498:	9b01      	ldr	r3, [sp, #4]
 800149a:	2b00      	cmp	r3, #0
 800149c:	9b01      	ldr	r3, [sp, #4]
 800149e:	bf08      	it	eq
 80014a0:	2400      	moveq	r4, #0
 80014a2:	3b01      	subs	r3, #1
 80014a4:	e7be      	b.n	8001424 <SPI_WaitFlagStateUntilTimeout.constprop.0+0x24>
 80014a6:	bf00      	nop
 80014a8:	2000003c 	.word	0x2000003c

080014ac <SPI_EndRxTxTransaction>:
 80014ac:	b510      	push	{r4, lr}
 80014ae:	4613      	mov	r3, r2
 80014b0:	460a      	mov	r2, r1
 80014b2:	2180      	movs	r1, #128	; 0x80
 80014b4:	4604      	mov	r4, r0
 80014b6:	f7ff ffa3 	bl	8001400 <SPI_WaitFlagStateUntilTimeout.constprop.0>
 80014ba:	b120      	cbz	r0, 80014c6 <SPI_EndRxTxTransaction+0x1a>
 80014bc:	2003      	movs	r0, #3
 80014be:	6d63      	ldr	r3, [r4, #84]	; 0x54
 80014c0:	f043 0320 	orr.w	r3, r3, #32
 80014c4:	6563      	str	r3, [r4, #84]	; 0x54
 80014c6:	bd10      	pop	{r4, pc}

080014c8 <HAL_SPI_Init>:
 80014c8:	b510      	push	{r4, lr}
 80014ca:	4604      	mov	r4, r0
 80014cc:	2800      	cmp	r0, #0
 80014ce:	d051      	beq.n	8001574 <HAL_SPI_Init+0xac>
 80014d0:	6a43      	ldr	r3, [r0, #36]	; 0x24
 80014d2:	2b00      	cmp	r3, #0
 80014d4:	d14a      	bne.n	800156c <HAL_SPI_Init+0xa4>
 80014d6:	6842      	ldr	r2, [r0, #4]
 80014d8:	f5b2 7f82 	cmp.w	r2, #260	; 0x104
 80014dc:	d000      	beq.n	80014e0 <HAL_SPI_Init+0x18>
 80014de:	61c3      	str	r3, [r0, #28]
 80014e0:	2300      	movs	r3, #0
 80014e2:	62a3      	str	r3, [r4, #40]	; 0x28
 80014e4:	f894 3051 	ldrb.w	r3, [r4, #81]	; 0x51
 80014e8:	f003 02ff 	and.w	r2, r3, #255	; 0xff
 80014ec:	b923      	cbnz	r3, 80014f8 <HAL_SPI_Init+0x30>
 80014ee:	4620      	mov	r0, r4
 80014f0:	f884 2050 	strb.w	r2, [r4, #80]	; 0x50
 80014f4:	f7ff faa8 	bl	8000a48 <HAL_SPI_MspInit>
 80014f8:	2302      	movs	r3, #2
 80014fa:	6822      	ldr	r2, [r4, #0]
 80014fc:	f884 3051 	strb.w	r3, [r4, #81]	; 0x51
 8001500:	6813      	ldr	r3, [r2, #0]
 8001502:	68a0      	ldr	r0, [r4, #8]
 8001504:	f023 0340 	bic.w	r3, r3, #64	; 0x40
 8001508:	6013      	str	r3, [r2, #0]
 800150a:	6863      	ldr	r3, [r4, #4]
 800150c:	f400 4004 	and.w	r0, r0, #33792	; 0x8400
 8001510:	f403 7382 	and.w	r3, r3, #260	; 0x104
 8001514:	4303      	orrs	r3, r0
 8001516:	68e0      	ldr	r0, [r4, #12]
 8001518:	69a1      	ldr	r1, [r4, #24]
 800151a:	f400 6000 	and.w	r0, r0, #2048	; 0x800
 800151e:	4303      	orrs	r3, r0
 8001520:	6920      	ldr	r0, [r4, #16]
 8001522:	f000 0002 	and.w	r0, r0, #2
 8001526:	4303      	orrs	r3, r0
 8001528:	6960      	ldr	r0, [r4, #20]
 800152a:	f000 0001 	and.w	r0, r0, #1
 800152e:	4303      	orrs	r3, r0
 8001530:	f401 7000 	and.w	r0, r1, #512	; 0x200
 8001534:	4303      	orrs	r3, r0
 8001536:	69e0      	ldr	r0, [r4, #28]
 8001538:	0c09      	lsrs	r1, r1, #16
 800153a:	f000 0038 	and.w	r0, r0, #56	; 0x38
 800153e:	4303      	orrs	r3, r0
 8001540:	6a20      	ldr	r0, [r4, #32]
 8001542:	f001 0104 	and.w	r1, r1, #4
 8001546:	f000 0080 	and.w	r0, r0, #128	; 0x80
 800154a:	4303      	orrs	r3, r0
 800154c:	6aa0      	ldr	r0, [r4, #40]	; 0x28
 800154e:	f400 5000 	and.w	r0, r0, #8192	; 0x2000
 8001552:	4303      	orrs	r3, r0
 8001554:	6013      	str	r3, [r2, #0]
 8001556:	6051      	str	r1, [r2, #4]
 8001558:	69d3      	ldr	r3, [r2, #28]
 800155a:	2000      	movs	r0, #0
 800155c:	f423 6300 	bic.w	r3, r3, #2048	; 0x800
 8001560:	61d3      	str	r3, [r2, #28]
 8001562:	2301      	movs	r3, #1
 8001564:	6560      	str	r0, [r4, #84]	; 0x54
 8001566:	f884 3051 	strb.w	r3, [r4, #81]	; 0x51
 800156a:	bd10      	pop	{r4, pc}
 800156c:	2300      	movs	r3, #0
 800156e:	e9c0 3304 	strd	r3, r3, [r0, #16]
 8001572:	e7b5      	b.n	80014e0 <HAL_SPI_Init+0x18>
 8001574:	2001      	movs	r0, #1
 8001576:	e7f8      	b.n	800156a <HAL_SPI_Init+0xa2>

08001578 <HAL_SPI_Transmit>:
 8001578:	e92d 41f3 	stmdb	sp!, {r0, r1, r4, r5, r6, r7, r8, lr}
 800157c:	461e      	mov	r6, r3
 800157e:	f890 3050 	ldrb.w	r3, [r0, #80]	; 0x50
 8001582:	4604      	mov	r4, r0
 8001584:	2b01      	cmp	r3, #1
 8001586:	460d      	mov	r5, r1
 8001588:	4617      	mov	r7, r2
 800158a:	f000 80a0 	beq.w	80016ce <HAL_SPI_Transmit+0x156>
 800158e:	2301      	movs	r3, #1
 8001590:	f880 3050 	strb.w	r3, [r0, #80]	; 0x50
 8001594:	f7ff fb52 	bl	8000c3c <HAL_GetTick>
 8001598:	f894 3051 	ldrb.w	r3, [r4, #81]	; 0x51
 800159c:	4680      	mov	r8, r0
 800159e:	2b01      	cmp	r3, #1
 80015a0:	b2d8      	uxtb	r0, r3
 80015a2:	f040 8092 	bne.w	80016ca <HAL_SPI_Transmit+0x152>
 80015a6:	2d00      	cmp	r5, #0
 80015a8:	d05d      	beq.n	8001666 <HAL_SPI_Transmit+0xee>
 80015aa:	2f00      	cmp	r7, #0
 80015ac:	d05b      	beq.n	8001666 <HAL_SPI_Transmit+0xee>
 80015ae:	2303      	movs	r3, #3
 80015b0:	f884 3051 	strb.w	r3, [r4, #81]	; 0x51
 80015b4:	2300      	movs	r3, #0
 80015b6:	68a2      	ldr	r2, [r4, #8]
 80015b8:	6563      	str	r3, [r4, #84]	; 0x54
 80015ba:	f5b2 4f00 	cmp.w	r2, #32768	; 0x8000
 80015be:	e9c4 3310 	strd	r3, r3, [r4, #64]	; 0x40
 80015c2:	86e7      	strh	r7, [r4, #54]	; 0x36
 80015c4:	63a3      	str	r3, [r4, #56]	; 0x38
 80015c6:	87a3      	strh	r3, [r4, #60]	; 0x3c
 80015c8:	87e3      	strh	r3, [r4, #62]	; 0x3e
 80015ca:	6325      	str	r5, [r4, #48]	; 0x30
 80015cc:	6823      	ldr	r3, [r4, #0]
 80015ce:	86a7      	strh	r7, [r4, #52]	; 0x34
 80015d0:	d107      	bne.n	80015e2 <HAL_SPI_Transmit+0x6a>
 80015d2:	681a      	ldr	r2, [r3, #0]
 80015d4:	f022 0240 	bic.w	r2, r2, #64	; 0x40
 80015d8:	601a      	str	r2, [r3, #0]
 80015da:	681a      	ldr	r2, [r3, #0]
 80015dc:	f442 4280 	orr.w	r2, r2, #16384	; 0x4000
 80015e0:	601a      	str	r2, [r3, #0]
 80015e2:	681a      	ldr	r2, [r3, #0]
 80015e4:	68e1      	ldr	r1, [r4, #12]
 80015e6:	0652      	lsls	r2, r2, #25
 80015e8:	bf5e      	ittt	pl
 80015ea:	681a      	ldrpl	r2, [r3, #0]
 80015ec:	f042 0240 	orrpl.w	r2, r2, #64	; 0x40
 80015f0:	601a      	strpl	r2, [r3, #0]
 80015f2:	f5b1 6f00 	cmp.w	r1, #2048	; 0x800
 80015f6:	6862      	ldr	r2, [r4, #4]
 80015f8:	d141      	bne.n	800167e <HAL_SPI_Transmit+0x106>
 80015fa:	b10a      	cbz	r2, 8001600 <HAL_SPI_Transmit+0x88>
 80015fc:	2f01      	cmp	r7, #1
 80015fe:	d107      	bne.n	8001610 <HAL_SPI_Transmit+0x98>
 8001600:	f835 2b02 	ldrh.w	r2, [r5], #2
 8001604:	60da      	str	r2, [r3, #12]
 8001606:	6325      	str	r5, [r4, #48]	; 0x30
 8001608:	8ee3      	ldrh	r3, [r4, #54]	; 0x36
 800160a:	3b01      	subs	r3, #1
 800160c:	b29b      	uxth	r3, r3
 800160e:	86e3      	strh	r3, [r4, #54]	; 0x36
 8001610:	8ee3      	ldrh	r3, [r4, #54]	; 0x36
 8001612:	b29b      	uxth	r3, r3
 8001614:	b9a3      	cbnz	r3, 8001640 <HAL_SPI_Transmit+0xc8>
 8001616:	4642      	mov	r2, r8
 8001618:	4631      	mov	r1, r6
 800161a:	4620      	mov	r0, r4
 800161c:	f7ff ff46 	bl	80014ac <SPI_EndRxTxTransaction>
 8001620:	2800      	cmp	r0, #0
 8001622:	d14f      	bne.n	80016c4 <HAL_SPI_Transmit+0x14c>
 8001624:	68a3      	ldr	r3, [r4, #8]
 8001626:	b933      	cbnz	r3, 8001636 <HAL_SPI_Transmit+0xbe>
 8001628:	9301      	str	r3, [sp, #4]
 800162a:	6823      	ldr	r3, [r4, #0]
 800162c:	68da      	ldr	r2, [r3, #12]
 800162e:	9201      	str	r2, [sp, #4]
 8001630:	689b      	ldr	r3, [r3, #8]
 8001632:	9301      	str	r3, [sp, #4]
 8001634:	9b01      	ldr	r3, [sp, #4]
 8001636:	6d60      	ldr	r0, [r4, #84]	; 0x54
 8001638:	3800      	subs	r0, #0
 800163a:	bf18      	it	ne
 800163c:	2001      	movne	r0, #1
 800163e:	e012      	b.n	8001666 <HAL_SPI_Transmit+0xee>
 8001640:	6822      	ldr	r2, [r4, #0]
 8001642:	6893      	ldr	r3, [r2, #8]
 8001644:	0798      	lsls	r0, r3, #30
 8001646:	d505      	bpl.n	8001654 <HAL_SPI_Transmit+0xdc>
 8001648:	6b23      	ldr	r3, [r4, #48]	; 0x30
 800164a:	f833 1b02 	ldrh.w	r1, [r3], #2
 800164e:	60d1      	str	r1, [r2, #12]
 8001650:	6323      	str	r3, [r4, #48]	; 0x30
 8001652:	e7d9      	b.n	8001608 <HAL_SPI_Transmit+0x90>
 8001654:	f7ff faf2 	bl	8000c3c <HAL_GetTick>
 8001658:	eba0 0008 	sub.w	r0, r0, r8
 800165c:	42b0      	cmp	r0, r6
 800165e:	d30b      	bcc.n	8001678 <HAL_SPI_Transmit+0x100>
 8001660:	1c71      	adds	r1, r6, #1
 8001662:	d0d5      	beq.n	8001610 <HAL_SPI_Transmit+0x98>
 8001664:	2003      	movs	r0, #3
 8001666:	2301      	movs	r3, #1
 8001668:	f884 3051 	strb.w	r3, [r4, #81]	; 0x51
 800166c:	2300      	movs	r3, #0
 800166e:	f884 3050 	strb.w	r3, [r4, #80]	; 0x50
 8001672:	b002      	add	sp, #8
 8001674:	e8bd 81f0 	ldmia.w	sp!, {r4, r5, r6, r7, r8, pc}
 8001678:	2e00      	cmp	r6, #0
 800167a:	d1c9      	bne.n	8001610 <HAL_SPI_Transmit+0x98>
 800167c:	e7f2      	b.n	8001664 <HAL_SPI_Transmit+0xec>
 800167e:	b10a      	cbz	r2, 8001684 <HAL_SPI_Transmit+0x10c>
 8001680:	2f01      	cmp	r7, #1
 8001682:	d108      	bne.n	8001696 <HAL_SPI_Transmit+0x11e>
 8001684:	782a      	ldrb	r2, [r5, #0]
 8001686:	731a      	strb	r2, [r3, #12]
 8001688:	6b23      	ldr	r3, [r4, #48]	; 0x30
 800168a:	3301      	adds	r3, #1
 800168c:	6323      	str	r3, [r4, #48]	; 0x30
 800168e:	8ee3      	ldrh	r3, [r4, #54]	; 0x36
 8001690:	3b01      	subs	r3, #1
 8001692:	b29b      	uxth	r3, r3
 8001694:	86e3      	strh	r3, [r4, #54]	; 0x36
 8001696:	8ee3      	ldrh	r3, [r4, #54]	; 0x36
 8001698:	b29b      	uxth	r3, r3
 800169a:	2b00      	cmp	r3, #0
 800169c:	d0bb      	beq.n	8001616 <HAL_SPI_Transmit+0x9e>
 800169e:	6823      	ldr	r3, [r4, #0]
 80016a0:	689a      	ldr	r2, [r3, #8]
 80016a2:	0792      	lsls	r2, r2, #30
 80016a4:	d502      	bpl.n	80016ac <HAL_SPI_Transmit+0x134>
 80016a6:	6b22      	ldr	r2, [r4, #48]	; 0x30
 80016a8:	7812      	ldrb	r2, [r2, #0]
 80016aa:	e7ec      	b.n	8001686 <HAL_SPI_Transmit+0x10e>
 80016ac:	f7ff fac6 	bl	8000c3c <HAL_GetTick>
 80016b0:	eba0 0008 	sub.w	r0, r0, r8
 80016b4:	42b0      	cmp	r0, r6
 80016b6:	d302      	bcc.n	80016be <HAL_SPI_Transmit+0x146>
 80016b8:	1c73      	adds	r3, r6, #1
 80016ba:	d0ec      	beq.n	8001696 <HAL_SPI_Transmit+0x11e>
 80016bc:	e7d2      	b.n	8001664 <HAL_SPI_Transmit+0xec>
 80016be:	2e00      	cmp	r6, #0
 80016c0:	d1e9      	bne.n	8001696 <HAL_SPI_Transmit+0x11e>
 80016c2:	e7cf      	b.n	8001664 <HAL_SPI_Transmit+0xec>
 80016c4:	2320      	movs	r3, #32
 80016c6:	6563      	str	r3, [r4, #84]	; 0x54
 80016c8:	e7ac      	b.n	8001624 <HAL_SPI_Transmit+0xac>
 80016ca:	2002      	movs	r0, #2
 80016cc:	e7cb      	b.n	8001666 <HAL_SPI_Transmit+0xee>
 80016ce:	2002      	movs	r0, #2
 80016d0:	e7cf      	b.n	8001672 <HAL_SPI_Transmit+0xfa>

080016d2 <HAL_SPI_TransmitReceive>:
 80016d2:	e92d 43f7 	stmdb	sp!, {r0, r1, r2, r4, r5, r6, r7, r8, r9, lr}
 80016d6:	461e      	mov	r6, r3
 80016d8:	f890 3050 	ldrb.w	r3, [r0, #80]	; 0x50
 80016dc:	4604      	mov	r4, r0
 80016de:	2b01      	cmp	r3, #1
 80016e0:	460d      	mov	r5, r1
 80016e2:	4691      	mov	r9, r2
 80016e4:	9f0a      	ldr	r7, [sp, #40]	; 0x28
 80016e6:	f000 80e6 	beq.w	80018b6 <HAL_SPI_TransmitReceive+0x1e4>
 80016ea:	2301      	movs	r3, #1
 80016ec:	f880 3050 	strb.w	r3, [r0, #80]	; 0x50
 80016f0:	f7ff faa4 	bl	8000c3c <HAL_GetTick>
 80016f4:	f894 3051 	ldrb.w	r3, [r4, #81]	; 0x51
 80016f8:	4680      	mov	r8, r0
 80016fa:	2b01      	cmp	r3, #1
 80016fc:	6862      	ldr	r2, [r4, #4]
 80016fe:	b2d9      	uxtb	r1, r3
 8001700:	d00a      	beq.n	8001718 <HAL_SPI_TransmitReceive+0x46>
 8001702:	f5b2 7f82 	cmp.w	r2, #260	; 0x104
 8001706:	f040 80d4 	bne.w	80018b2 <HAL_SPI_TransmitReceive+0x1e0>
 800170a:	68a3      	ldr	r3, [r4, #8]
 800170c:	2b00      	cmp	r3, #0
 800170e:	f040 80d0 	bne.w	80018b2 <HAL_SPI_TransmitReceive+0x1e0>
 8001712:	2904      	cmp	r1, #4
 8001714:	f040 80cd 	bne.w	80018b2 <HAL_SPI_TransmitReceive+0x1e0>
 8001718:	2d00      	cmp	r5, #0
 800171a:	d040      	beq.n	800179e <HAL_SPI_TransmitReceive+0xcc>
 800171c:	f1b9 0f00 	cmp.w	r9, #0
 8001720:	d03d      	beq.n	800179e <HAL_SPI_TransmitReceive+0xcc>
 8001722:	2e00      	cmp	r6, #0
 8001724:	d03b      	beq.n	800179e <HAL_SPI_TransmitReceive+0xcc>
 8001726:	f894 3051 	ldrb.w	r3, [r4, #81]	; 0x51
 800172a:	f8c4 9038 	str.w	r9, [r4, #56]	; 0x38
 800172e:	2b04      	cmp	r3, #4
 8001730:	bf1c      	itt	ne
 8001732:	2305      	movne	r3, #5
 8001734:	f884 3051 	strbne.w	r3, [r4, #81]	; 0x51
 8001738:	2300      	movs	r3, #0
 800173a:	6563      	str	r3, [r4, #84]	; 0x54
 800173c:	e9c4 3310 	strd	r3, r3, [r4, #64]	; 0x40
 8001740:	6823      	ldr	r3, [r4, #0]
 8001742:	87e6      	strh	r6, [r4, #62]	; 0x3e
 8001744:	86e6      	strh	r6, [r4, #54]	; 0x36
 8001746:	6819      	ldr	r1, [r3, #0]
 8001748:	87a6      	strh	r6, [r4, #60]	; 0x3c
 800174a:	0649      	lsls	r1, r1, #25
 800174c:	bf58      	it	pl
 800174e:	6819      	ldrpl	r1, [r3, #0]
 8001750:	6325      	str	r5, [r4, #48]	; 0x30
 8001752:	bf58      	it	pl
 8001754:	f041 0140 	orrpl.w	r1, r1, #64	; 0x40
 8001758:	86a6      	strh	r6, [r4, #52]	; 0x34
 800175a:	bf58      	it	pl
 800175c:	6019      	strpl	r1, [r3, #0]
 800175e:	68e1      	ldr	r1, [r4, #12]
 8001760:	f5b1 6f00 	cmp.w	r1, #2048	; 0x800
 8001764:	d152      	bne.n	800180c <HAL_SPI_TransmitReceive+0x13a>
 8001766:	b10a      	cbz	r2, 800176c <HAL_SPI_TransmitReceive+0x9a>
 8001768:	2e01      	cmp	r6, #1
 800176a:	d107      	bne.n	800177c <HAL_SPI_TransmitReceive+0xaa>
 800176c:	f835 2b02 	ldrh.w	r2, [r5], #2
 8001770:	60da      	str	r2, [r3, #12]
 8001772:	8ee3      	ldrh	r3, [r4, #54]	; 0x36
 8001774:	6325      	str	r5, [r4, #48]	; 0x30
 8001776:	3b01      	subs	r3, #1
 8001778:	b29b      	uxth	r3, r3
 800177a:	86e3      	strh	r3, [r4, #54]	; 0x36
 800177c:	2501      	movs	r5, #1
 800177e:	8ee3      	ldrh	r3, [r4, #54]	; 0x36
 8001780:	b29b      	uxth	r3, r3
 8001782:	b973      	cbnz	r3, 80017a2 <HAL_SPI_TransmitReceive+0xd0>
 8001784:	8fe3      	ldrh	r3, [r4, #62]	; 0x3e
 8001786:	b29b      	uxth	r3, r3
 8001788:	b95b      	cbnz	r3, 80017a2 <HAL_SPI_TransmitReceive+0xd0>
 800178a:	4642      	mov	r2, r8
 800178c:	4639      	mov	r1, r7
 800178e:	4620      	mov	r0, r4
 8001790:	f7ff fe8c 	bl	80014ac <SPI_EndRxTxTransaction>
 8001794:	2800      	cmp	r0, #0
 8001796:	f000 8081 	beq.w	800189c <HAL_SPI_TransmitReceive+0x1ca>
 800179a:	2320      	movs	r3, #32
 800179c:	6563      	str	r3, [r4, #84]	; 0x54
 800179e:	2001      	movs	r0, #1
 80017a0:	e02b      	b.n	80017fa <HAL_SPI_TransmitReceive+0x128>
 80017a2:	6821      	ldr	r1, [r4, #0]
 80017a4:	688b      	ldr	r3, [r1, #8]
 80017a6:	079e      	lsls	r6, r3, #30
 80017a8:	d50d      	bpl.n	80017c6 <HAL_SPI_TransmitReceive+0xf4>
 80017aa:	8ee3      	ldrh	r3, [r4, #54]	; 0x36
 80017ac:	b29b      	uxth	r3, r3
 80017ae:	b153      	cbz	r3, 80017c6 <HAL_SPI_TransmitReceive+0xf4>
 80017b0:	b14d      	cbz	r5, 80017c6 <HAL_SPI_TransmitReceive+0xf4>
 80017b2:	2500      	movs	r5, #0
 80017b4:	6b23      	ldr	r3, [r4, #48]	; 0x30
 80017b6:	f833 2b02 	ldrh.w	r2, [r3], #2
 80017ba:	60ca      	str	r2, [r1, #12]
 80017bc:	6323      	str	r3, [r4, #48]	; 0x30
 80017be:	8ee3      	ldrh	r3, [r4, #54]	; 0x36
 80017c0:	3b01      	subs	r3, #1
 80017c2:	b29b      	uxth	r3, r3
 80017c4:	86e3      	strh	r3, [r4, #54]	; 0x36
 80017c6:	688a      	ldr	r2, [r1, #8]
 80017c8:	f012 0201 	ands.w	r2, r2, #1
 80017cc:	d00c      	beq.n	80017e8 <HAL_SPI_TransmitReceive+0x116>
 80017ce:	8fe3      	ldrh	r3, [r4, #62]	; 0x3e
 80017d0:	b29b      	uxth	r3, r3
 80017d2:	b14b      	cbz	r3, 80017e8 <HAL_SPI_TransmitReceive+0x116>
 80017d4:	4615      	mov	r5, r2
 80017d6:	68c9      	ldr	r1, [r1, #12]
 80017d8:	6ba3      	ldr	r3, [r4, #56]	; 0x38
 80017da:	f823 1b02 	strh.w	r1, [r3], #2
 80017de:	63a3      	str	r3, [r4, #56]	; 0x38
 80017e0:	8fe3      	ldrh	r3, [r4, #62]	; 0x3e
 80017e2:	3b01      	subs	r3, #1
 80017e4:	b29b      	uxth	r3, r3
 80017e6:	87e3      	strh	r3, [r4, #62]	; 0x3e
 80017e8:	f7ff fa28 	bl	8000c3c <HAL_GetTick>
 80017ec:	eba0 0008 	sub.w	r0, r0, r8
 80017f0:	42b8      	cmp	r0, r7
 80017f2:	d3c4      	bcc.n	800177e <HAL_SPI_TransmitReceive+0xac>
 80017f4:	1c78      	adds	r0, r7, #1
 80017f6:	d0c2      	beq.n	800177e <HAL_SPI_TransmitReceive+0xac>
 80017f8:	2003      	movs	r0, #3
 80017fa:	2301      	movs	r3, #1
 80017fc:	f884 3051 	strb.w	r3, [r4, #81]	; 0x51
 8001800:	2300      	movs	r3, #0
 8001802:	f884 3050 	strb.w	r3, [r4, #80]	; 0x50
 8001806:	b003      	add	sp, #12
 8001808:	e8bd 83f0 	ldmia.w	sp!, {r4, r5, r6, r7, r8, r9, pc}
 800180c:	b10a      	cbz	r2, 8001812 <HAL_SPI_TransmitReceive+0x140>
 800180e:	2e01      	cmp	r6, #1
 8001810:	d108      	bne.n	8001824 <HAL_SPI_TransmitReceive+0x152>
 8001812:	782a      	ldrb	r2, [r5, #0]
 8001814:	731a      	strb	r2, [r3, #12]
 8001816:	6b23      	ldr	r3, [r4, #48]	; 0x30
 8001818:	3301      	adds	r3, #1
 800181a:	6323      	str	r3, [r4, #48]	; 0x30
 800181c:	8ee3      	ldrh	r3, [r4, #54]	; 0x36
 800181e:	3b01      	subs	r3, #1
 8001820:	b29b      	uxth	r3, r3
 8001822:	86e3      	strh	r3, [r4, #54]	; 0x36
 8001824:	2501      	movs	r5, #1
 8001826:	e02d      	b.n	8001884 <HAL_SPI_TransmitReceive+0x1b2>
 8001828:	6822      	ldr	r2, [r4, #0]
 800182a:	6893      	ldr	r3, [r2, #8]
 800182c:	0799      	lsls	r1, r3, #30
 800182e:	d50e      	bpl.n	800184e <HAL_SPI_TransmitReceive+0x17c>
 8001830:	8ee3      	ldrh	r3, [r4, #54]	; 0x36
 8001832:	b29b      	uxth	r3, r3
 8001834:	b15b      	cbz	r3, 800184e <HAL_SPI_TransmitReceive+0x17c>
 8001836:	b155      	cbz	r5, 800184e <HAL_SPI_TransmitReceive+0x17c>
 8001838:	2500      	movs	r5, #0
 800183a:	6b23      	ldr	r3, [r4, #48]	; 0x30
 800183c:	781b      	ldrb	r3, [r3, #0]
 800183e:	7313      	strb	r3, [r2, #12]
 8001840:	6b23      	ldr	r3, [r4, #48]	; 0x30
 8001842:	3301      	adds	r3, #1
 8001844:	6323      	str	r3, [r4, #48]	; 0x30
 8001846:	8ee3      	ldrh	r3, [r4, #54]	; 0x36
 8001848:	3b01      	subs	r3, #1
 800184a:	b29b      	uxth	r3, r3
 800184c:	86e3      	strh	r3, [r4, #54]	; 0x36
 800184e:	6822      	ldr	r2, [r4, #0]
 8001850:	6891      	ldr	r1, [r2, #8]
 8001852:	f011 0101 	ands.w	r1, r1, #1
 8001856:	d00d      	beq.n	8001874 <HAL_SPI_TransmitReceive+0x1a2>
 8001858:	8fe3      	ldrh	r3, [r4, #62]	; 0x3e
 800185a:	b29b      	uxth	r3, r3
 800185c:	b153      	cbz	r3, 8001874 <HAL_SPI_TransmitReceive+0x1a2>
 800185e:	460d      	mov	r5, r1
 8001860:	68d2      	ldr	r2, [r2, #12]
 8001862:	6ba3      	ldr	r3, [r4, #56]	; 0x38
 8001864:	701a      	strb	r2, [r3, #0]
 8001866:	6ba3      	ldr	r3, [r4, #56]	; 0x38
 8001868:	3301      	adds	r3, #1
 800186a:	63a3      	str	r3, [r4, #56]	; 0x38
 800186c:	8fe3      	ldrh	r3, [r4, #62]	; 0x3e
 800186e:	3b01      	subs	r3, #1
 8001870:	b29b      	uxth	r3, r3
 8001872:	87e3      	strh	r3, [r4, #62]	; 0x3e
 8001874:	f7ff f9e2 	bl	8000c3c <HAL_GetTick>
 8001878:	eba0 0008 	sub.w	r0, r0, r8
 800187c:	42b8      	cmp	r0, r7
 800187e:	d30a      	bcc.n	8001896 <HAL_SPI_TransmitReceive+0x1c4>
 8001880:	1c7b      	adds	r3, r7, #1
 8001882:	d1b9      	bne.n	80017f8 <HAL_SPI_TransmitReceive+0x126>
 8001884:	8ee3      	ldrh	r3, [r4, #54]	; 0x36
 8001886:	b29b      	uxth	r3, r3
 8001888:	2b00      	cmp	r3, #0
 800188a:	d1cd      	bne.n	8001828 <HAL_SPI_TransmitReceive+0x156>
 800188c:	8fe3      	ldrh	r3, [r4, #62]	; 0x3e
 800188e:	b29b      	uxth	r3, r3
 8001890:	2b00      	cmp	r3, #0
 8001892:	d1c9      	bne.n	8001828 <HAL_SPI_TransmitReceive+0x156>
 8001894:	e779      	b.n	800178a <HAL_SPI_TransmitReceive+0xb8>
 8001896:	2f00      	cmp	r7, #0
 8001898:	d1f4      	bne.n	8001884 <HAL_SPI_TransmitReceive+0x1b2>
 800189a:	e7ad      	b.n	80017f8 <HAL_SPI_TransmitReceive+0x126>
 800189c:	68a3      	ldr	r3, [r4, #8]
 800189e:	2b00      	cmp	r3, #0
 80018a0:	d1ab      	bne.n	80017fa <HAL_SPI_TransmitReceive+0x128>
 80018a2:	6823      	ldr	r3, [r4, #0]
 80018a4:	9001      	str	r0, [sp, #4]
 80018a6:	68da      	ldr	r2, [r3, #12]
 80018a8:	9201      	str	r2, [sp, #4]
 80018aa:	689b      	ldr	r3, [r3, #8]
 80018ac:	9301      	str	r3, [sp, #4]
 80018ae:	9b01      	ldr	r3, [sp, #4]
 80018b0:	e7a3      	b.n	80017fa <HAL_SPI_TransmitReceive+0x128>
 80018b2:	2002      	movs	r0, #2
 80018b4:	e7a1      	b.n	80017fa <HAL_SPI_TransmitReceive+0x128>
 80018b6:	2002      	movs	r0, #2
 80018b8:	e7a5      	b.n	8001806 <HAL_SPI_TransmitReceive+0x134>
	...

080018bc <UART_SetConfig>:
 80018bc:	b510      	push	{r4, lr}
 80018be:	4604      	mov	r4, r0
 80018c0:	6803      	ldr	r3, [r0, #0]
 80018c2:	68c1      	ldr	r1, [r0, #12]
 80018c4:	691a      	ldr	r2, [r3, #16]
 80018c6:	f422 5240 	bic.w	r2, r2, #12288	; 0x3000
 80018ca:	430a      	orrs	r2, r1
 80018cc:	611a      	str	r2, [r3, #16]
 80018ce:	6882      	ldr	r2, [r0, #8]
 80018d0:	6900      	ldr	r0, [r0, #16]
 80018d2:	68d9      	ldr	r1, [r3, #12]
 80018d4:	4302      	orrs	r2, r0
 80018d6:	6960      	ldr	r0, [r4, #20]
 80018d8:	f421 51b0 	bic.w	r1, r1, #5632	; 0x1600
 80018dc:	f021 010c 	bic.w	r1, r1, #12
 80018e0:	4302      	orrs	r2, r0
 80018e2:	430a      	orrs	r2, r1
 80018e4:	60da      	str	r2, [r3, #12]
 80018e6:	695a      	ldr	r2, [r3, #20]
 80018e8:	69a1      	ldr	r1, [r4, #24]
 80018ea:	f422 7240 	bic.w	r2, r2, #768	; 0x300
 80018ee:	430a      	orrs	r2, r1
 80018f0:	615a      	str	r2, [r3, #20]
 80018f2:	4a0e      	ldr	r2, [pc, #56]	; (800192c <UART_SetConfig+0x70>)
 80018f4:	4293      	cmp	r3, r2
 80018f6:	d115      	bne.n	8001924 <UART_SetConfig+0x68>
 80018f8:	f7ff fd72 	bl	80013e0 <HAL_RCC_GetPCLK2Freq>
 80018fc:	2319      	movs	r3, #25
 80018fe:	4343      	muls	r3, r0
 8001900:	6862      	ldr	r2, [r4, #4]
 8001902:	6820      	ldr	r0, [r4, #0]
 8001904:	0092      	lsls	r2, r2, #2
 8001906:	fbb3 f3f2 	udiv	r3, r3, r2
 800190a:	2264      	movs	r2, #100	; 0x64
 800190c:	fbb3 f1f2 	udiv	r1, r3, r2
 8001910:	fb02 3311 	mls	r3, r2, r1, r3
 8001914:	011b      	lsls	r3, r3, #4
 8001916:	3332      	adds	r3, #50	; 0x32
 8001918:	fbb3 f3f2 	udiv	r3, r3, r2
 800191c:	eb03 1301 	add.w	r3, r3, r1, lsl #4
 8001920:	6083      	str	r3, [r0, #8]
 8001922:	bd10      	pop	{r4, pc}
 8001924:	f7ff fd4c 	bl	80013c0 <HAL_RCC_GetPCLK1Freq>
 8001928:	e7e8      	b.n	80018fc <UART_SetConfig+0x40>
 800192a:	bf00      	nop
 800192c:	40013800 	.word	0x40013800

08001930 <UART_WaitOnFlagUntilTimeout.constprop.0>:
 8001930:	b5f8      	push	{r3, r4, r5, r6, r7, lr}
 8001932:	4604      	mov	r4, r0
 8001934:	460e      	mov	r6, r1
 8001936:	4617      	mov	r7, r2
 8001938:	461d      	mov	r5, r3
 800193a:	6822      	ldr	r2, [r4, #0]
 800193c:	6813      	ldr	r3, [r2, #0]
 800193e:	ea36 0303 	bics.w	r3, r6, r3
 8001942:	d101      	bne.n	8001948 <UART_WaitOnFlagUntilTimeout.constprop.0+0x18>
 8001944:	2000      	movs	r0, #0
 8001946:	e014      	b.n	8001972 <UART_WaitOnFlagUntilTimeout.constprop.0+0x42>
 8001948:	1c6b      	adds	r3, r5, #1
 800194a:	d0f7      	beq.n	800193c <UART_WaitOnFlagUntilTimeout.constprop.0+0xc>
 800194c:	b995      	cbnz	r5, 8001974 <UART_WaitOnFlagUntilTimeout.constprop.0+0x44>
 800194e:	6823      	ldr	r3, [r4, #0]
 8001950:	2003      	movs	r0, #3
 8001952:	68da      	ldr	r2, [r3, #12]
 8001954:	f422 72d0 	bic.w	r2, r2, #416	; 0x1a0
 8001958:	60da      	str	r2, [r3, #12]
 800195a:	695a      	ldr	r2, [r3, #20]
 800195c:	f022 0201 	bic.w	r2, r2, #1
 8001960:	615a      	str	r2, [r3, #20]
 8001962:	2320      	movs	r3, #32
 8001964:	f884 303d 	strb.w	r3, [r4, #61]	; 0x3d
 8001968:	f884 303e 	strb.w	r3, [r4, #62]	; 0x3e
 800196c:	2300      	movs	r3, #0
 800196e:	f884 303c 	strb.w	r3, [r4, #60]	; 0x3c
 8001972:	bdf8      	pop	{r3, r4, r5, r6, r7, pc}
 8001974:	f7ff f962 	bl	8000c3c <HAL_GetTick>
 8001978:	1bc0      	subs	r0, r0, r7
 800197a:	4285      	cmp	r5, r0
 800197c:	d2dd      	bcs.n	800193a <UART_WaitOnFlagUntilTimeout.constprop.0+0xa>
 800197e:	e7e6      	b.n	800194e <UART_WaitOnFlagUntilTimeout.constprop.0+0x1e>

08001980 <HAL_UART_Init>:
 8001980:	b510      	push	{r4, lr}
 8001982:	4604      	mov	r4, r0
 8001984:	b340      	cbz	r0, 80019d8 <HAL_UART_Init+0x58>
 8001986:	f890 303d 	ldrb.w	r3, [r0, #61]	; 0x3d
 800198a:	f003 02ff 	and.w	r2, r3, #255	; 0xff
 800198e:	b91b      	cbnz	r3, 8001998 <HAL_UART_Init+0x18>
 8001990:	f880 203c 	strb.w	r2, [r0, #60]	; 0x3c
 8001994:	f7ff f894 	bl	8000ac0 <HAL_UART_MspInit>
 8001998:	2324      	movs	r3, #36	; 0x24
 800199a:	6822      	ldr	r2, [r4, #0]
 800199c:	f884 303d 	strb.w	r3, [r4, #61]	; 0x3d
 80019a0:	68d3      	ldr	r3, [r2, #12]
 80019a2:	4620      	mov	r0, r4
 80019a4:	f423 5300 	bic.w	r3, r3, #8192	; 0x2000
 80019a8:	60d3      	str	r3, [r2, #12]
 80019aa:	f7ff ff87 	bl	80018bc <UART_SetConfig>
 80019ae:	6823      	ldr	r3, [r4, #0]
 80019b0:	2000      	movs	r0, #0
 80019b2:	691a      	ldr	r2, [r3, #16]
 80019b4:	f422 4290 	bic.w	r2, r2, #18432	; 0x4800
 80019b8:	611a      	str	r2, [r3, #16]
 80019ba:	695a      	ldr	r2, [r3, #20]
 80019bc:	f022 022a 	bic.w	r2, r2, #42	; 0x2a
 80019c0:	615a      	str	r2, [r3, #20]
 80019c2:	68da      	ldr	r2, [r3, #12]
 80019c4:	f442 5200 	orr.w	r2, r2, #8192	; 0x2000
 80019c8:	60da      	str	r2, [r3, #12]
 80019ca:	2320      	movs	r3, #32
 80019cc:	6420      	str	r0, [r4, #64]	; 0x40
 80019ce:	f884 303d 	strb.w	r3, [r4, #61]	; 0x3d
 80019d2:	f884 303e 	strb.w	r3, [r4, #62]	; 0x3e
 80019d6:	bd10      	pop	{r4, pc}
 80019d8:	2001      	movs	r0, #1
 80019da:	e7fc      	b.n	80019d6 <HAL_UART_Init+0x56>

080019dc <HAL_UART_Transmit>:
 80019dc:	e92d 43f8 	stmdb	sp!, {r3, r4, r5, r6, r7, r8, r9, lr}
 80019e0:	4699      	mov	r9, r3
 80019e2:	f890 303d 	ldrb.w	r3, [r0, #61]	; 0x3d
 80019e6:	4604      	mov	r4, r0
 80019e8:	2b20      	cmp	r3, #32
 80019ea:	460e      	mov	r6, r1
 80019ec:	4617      	mov	r7, r2
 80019ee:	d148      	bne.n	8001a82 <HAL_UART_Transmit+0xa6>
 80019f0:	2900      	cmp	r1, #0
 80019f2:	d044      	beq.n	8001a7e <HAL_UART_Transmit+0xa2>
 80019f4:	2a00      	cmp	r2, #0
 80019f6:	d042      	beq.n	8001a7e <HAL_UART_Transmit+0xa2>
 80019f8:	f890 303c 	ldrb.w	r3, [r0, #60]	; 0x3c
 80019fc:	2b01      	cmp	r3, #1
 80019fe:	d040      	beq.n	8001a82 <HAL_UART_Transmit+0xa6>
 8001a00:	2301      	movs	r3, #1
 8001a02:	2500      	movs	r5, #0
 8001a04:	f880 303c 	strb.w	r3, [r0, #60]	; 0x3c
 8001a08:	2321      	movs	r3, #33	; 0x21
 8001a0a:	6405      	str	r5, [r0, #64]	; 0x40
 8001a0c:	f880 303d 	strb.w	r3, [r0, #61]	; 0x3d
 8001a10:	f7ff f914 	bl	8000c3c <HAL_GetTick>
 8001a14:	68a3      	ldr	r3, [r4, #8]
 8001a16:	4680      	mov	r8, r0
 8001a18:	f5b3 5f80 	cmp.w	r3, #4096	; 0x1000
 8001a1c:	84a7      	strh	r7, [r4, #36]	; 0x24
 8001a1e:	84e7      	strh	r7, [r4, #38]	; 0x26
 8001a20:	d103      	bne.n	8001a2a <HAL_UART_Transmit+0x4e>
 8001a22:	6923      	ldr	r3, [r4, #16]
 8001a24:	b90b      	cbnz	r3, 8001a2a <HAL_UART_Transmit+0x4e>
 8001a26:	4635      	mov	r5, r6
 8001a28:	461e      	mov	r6, r3
 8001a2a:	2300      	movs	r3, #0
 8001a2c:	f884 303c 	strb.w	r3, [r4, #60]	; 0x3c
 8001a30:	8ce3      	ldrh	r3, [r4, #38]	; 0x26
 8001a32:	b29b      	uxth	r3, r3
 8001a34:	b953      	cbnz	r3, 8001a4c <HAL_UART_Transmit+0x70>
 8001a36:	464b      	mov	r3, r9
 8001a38:	4642      	mov	r2, r8
 8001a3a:	2140      	movs	r1, #64	; 0x40
 8001a3c:	4620      	mov	r0, r4
 8001a3e:	f7ff ff77 	bl	8001930 <UART_WaitOnFlagUntilTimeout.constprop.0>
 8001a42:	b950      	cbnz	r0, 8001a5a <HAL_UART_Transmit+0x7e>
 8001a44:	2320      	movs	r3, #32
 8001a46:	f884 303d 	strb.w	r3, [r4, #61]	; 0x3d
 8001a4a:	e007      	b.n	8001a5c <HAL_UART_Transmit+0x80>
 8001a4c:	464b      	mov	r3, r9
 8001a4e:	4642      	mov	r2, r8
 8001a50:	2180      	movs	r1, #128	; 0x80
 8001a52:	4620      	mov	r0, r4
 8001a54:	f7ff ff6c 	bl	8001930 <UART_WaitOnFlagUntilTimeout.constprop.0>
 8001a58:	b110      	cbz	r0, 8001a60 <HAL_UART_Transmit+0x84>
 8001a5a:	2003      	movs	r0, #3
 8001a5c:	e8bd 83f8 	ldmia.w	sp!, {r3, r4, r5, r6, r7, r8, r9, pc}
 8001a60:	6822      	ldr	r2, [r4, #0]
 8001a62:	b94e      	cbnz	r6, 8001a78 <HAL_UART_Transmit+0x9c>
 8001a64:	f835 3b02 	ldrh.w	r3, [r5], #2
 8001a68:	f3c3 0308 	ubfx	r3, r3, #0, #9
 8001a6c:	6053      	str	r3, [r2, #4]
 8001a6e:	8ce1      	ldrh	r1, [r4, #38]	; 0x26
 8001a70:	3901      	subs	r1, #1
 8001a72:	b289      	uxth	r1, r1
 8001a74:	84e1      	strh	r1, [r4, #38]	; 0x26
 8001a76:	e7db      	b.n	8001a30 <HAL_UART_Transmit+0x54>
 8001a78:	f816 3b01 	ldrb.w	r3, [r6], #1
 8001a7c:	e7f6      	b.n	8001a6c <HAL_UART_Transmit+0x90>
 8001a7e:	2001      	movs	r0, #1
 8001a80:	e7ec      	b.n	8001a5c <HAL_UART_Transmit+0x80>
 8001a82:	2002      	movs	r0, #2
 8001a84:	e7ea      	b.n	8001a5c <HAL_UART_Transmit+0x80>
	...

08001a88 <MX_FATFS_Init>:
 8001a88:	b508      	push	{r3, lr}
 8001a8a:	4903      	ldr	r1, [pc, #12]	; (8001a98 <MX_FATFS_Init+0x10>)
 8001a8c:	4803      	ldr	r0, [pc, #12]	; (8001a9c <MX_FATFS_Init+0x14>)
 8001a8e:	f001 fb43 	bl	8003118 <FATFS_LinkDriver>
 8001a92:	4b03      	ldr	r3, [pc, #12]	; (8001aa0 <MX_FATFS_Init+0x18>)
 8001a94:	7018      	strb	r0, [r3, #0]
 8001a96:	bd08      	pop	{r3, pc}
 8001a98:	2000217c 	.word	0x2000217c
 8001a9c:	20000048 	.word	0x20000048
 8001aa0:	20002180 	.word	0x20002180

08001aa4 <get_fattime>:
 8001aa4:	2000      	movs	r0, #0
 8001aa6:	4770      	bx	lr

08001aa8 <USER_initialize>:
 8001aa8:	b508      	push	{r3, lr}
 8001aaa:	f7fe fc7f 	bl	80003ac <SD_disk_initialize>
 8001aae:	b2c0      	uxtb	r0, r0
 8001ab0:	bd08      	pop	{r3, pc}

08001ab2 <USER_status>:
 8001ab2:	b508      	push	{r3, lr}
 8001ab4:	f7fe fd24 	bl	8000500 <SD_disk_status>
 8001ab8:	b2c0      	uxtb	r0, r0
 8001aba:	bd08      	pop	{r3, pc}

08001abc <USER_read>:
 8001abc:	b508      	push	{r3, lr}
 8001abe:	f7fe fd29 	bl	8000514 <SD_disk_read>
 8001ac2:	b2c0      	uxtb	r0, r0
 8001ac4:	bd08      	pop	{r3, pc}

08001ac6 <USER_write>:
 8001ac6:	b508      	push	{r3, lr}
 8001ac8:	f7fe fd6a 	bl	80005a0 <SD_disk_write>
 8001acc:	b2c0      	uxtb	r0, r0
 8001ace:	bd08      	pop	{r3, pc}

08001ad0 <USER_ioctl>:
 8001ad0:	b508      	push	{r3, lr}
 8001ad2:	f7fe fdbd 	bl	8000650 <SD_disk_ioctl>
 8001ad6:	b2c0      	uxtb	r0, r0
 8001ad8:	bd08      	pop	{r3, pc}
	...

08001adc <disk_status>:
 8001adc:	4b03      	ldr	r3, [pc, #12]	; (8001aec <disk_status+0x10>)
 8001ade:	181a      	adds	r2, r3, r0
 8001ae0:	eb03 0380 	add.w	r3, r3, r0, lsl #2
 8001ae4:	685b      	ldr	r3, [r3, #4]
 8001ae6:	7a10      	ldrb	r0, [r2, #8]
 8001ae8:	685b      	ldr	r3, [r3, #4]
 8001aea:	4718      	bx	r3
 8001aec:	200023a4 	.word	0x200023a4

08001af0 <disk_initialize>:
 8001af0:	4b06      	ldr	r3, [pc, #24]	; (8001b0c <disk_initialize+0x1c>)
 8001af2:	5c1a      	ldrb	r2, [r3, r0]
 8001af4:	b942      	cbnz	r2, 8001b08 <disk_initialize+0x18>
 8001af6:	2201      	movs	r2, #1
 8001af8:	541a      	strb	r2, [r3, r0]
 8001afa:	181a      	adds	r2, r3, r0
 8001afc:	eb03 0380 	add.w	r3, r3, r0, lsl #2
 8001b00:	685b      	ldr	r3, [r3, #4]
 8001b02:	7a10      	ldrb	r0, [r2, #8]
 8001b04:	681b      	ldr	r3, [r3, #0]
 8001b06:	4718      	bx	r3
 8001b08:	2000      	movs	r0, #0
 8001b0a:	4770      	bx	lr
 8001b0c:	200023a4 	.word	0x200023a4

08001b10 <disk_read>:
 8001b10:	b430      	push	{r4, r5}
 8001b12:	4c05      	ldr	r4, [pc, #20]	; (8001b28 <disk_read+0x18>)
 8001b14:	1825      	adds	r5, r4, r0
 8001b16:	eb04 0480 	add.w	r4, r4, r0, lsl #2
 8001b1a:	6860      	ldr	r0, [r4, #4]
 8001b1c:	6884      	ldr	r4, [r0, #8]
 8001b1e:	7a28      	ldrb	r0, [r5, #8]
 8001b20:	46a4      	mov	ip, r4
 8001b22:	bc30      	pop	{r4, r5}
 8001b24:	4760      	bx	ip
 8001b26:	bf00      	nop
 8001b28:	200023a4 	.word	0x200023a4

08001b2c <disk_write>:
 8001b2c:	b430      	push	{r4, r5}
 8001b2e:	4c05      	ldr	r4, [pc, #20]	; (8001b44 <disk_write+0x18>)
 8001b30:	1825      	adds	r5, r4, r0
 8001b32:	eb04 0480 	add.w	r4, r4, r0, lsl #2
 8001b36:	6860      	ldr	r0, [r4, #4]
 8001b38:	68c4      	ldr	r4, [r0, #12]
 8001b3a:	7a28      	ldrb	r0, [r5, #8]
 8001b3c:	46a4      	mov	ip, r4
 8001b3e:	bc30      	pop	{r4, r5}
 8001b40:	4760      	bx	ip
 8001b42:	bf00      	nop
 8001b44:	200023a4 	.word	0x200023a4

08001b48 <disk_ioctl>:
 8001b48:	b410      	push	{r4}
 8001b4a:	4b04      	ldr	r3, [pc, #16]	; (8001b5c <disk_ioctl+0x14>)
 8001b4c:	181c      	adds	r4, r3, r0
 8001b4e:	eb03 0380 	add.w	r3, r3, r0, lsl #2
 8001b52:	685b      	ldr	r3, [r3, #4]
 8001b54:	7a20      	ldrb	r0, [r4, #8]
 8001b56:	691b      	ldr	r3, [r3, #16]
 8001b58:	bc10      	pop	{r4}
 8001b5a:	4718      	bx	r3
 8001b5c:	200023a4 	.word	0x200023a4

08001b60 <mem_cpy>:
 8001b60:	3801      	subs	r0, #1
 8001b62:	440a      	add	r2, r1
 8001b64:	4291      	cmp	r1, r2
 8001b66:	d100      	bne.n	8001b6a <mem_cpy+0xa>
 8001b68:	4770      	bx	lr
 8001b6a:	f811 3b01 	ldrb.w	r3, [r1], #1
 8001b6e:	f800 3f01 	strb.w	r3, [r0, #1]!
 8001b72:	e7f7      	b.n	8001b64 <mem_cpy+0x4>

08001b74 <mem_set>:
 8001b74:	4402      	add	r2, r0
 8001b76:	4290      	cmp	r0, r2
 8001b78:	d100      	bne.n	8001b7c <mem_set+0x8>
 8001b7a:	4770      	bx	lr
 8001b7c:	f800 1b01 	strb.w	r1, [r0], #1
 8001b80:	e7f9      	b.n	8001b76 <mem_set+0x2>
	...

08001b84 <chk_lock>:
 8001b84:	4a1e      	ldr	r2, [pc, #120]	; (8001c00 <chk_lock+0x7c>)
 8001b86:	b530      	push	{r4, r5, lr}
 8001b88:	6814      	ldr	r4, [r2, #0]
 8001b8a:	4603      	mov	r3, r0
 8001b8c:	b174      	cbz	r4, 8001bac <chk_lock+0x28>
 8001b8e:	f500 5080 	add.w	r0, r0, #4096	; 0x1000
 8001b92:	6805      	ldr	r5, [r0, #0]
 8001b94:	42a5      	cmp	r5, r4
 8001b96:	d107      	bne.n	8001ba8 <chk_lock+0x24>
 8001b98:	6855      	ldr	r5, [r2, #4]
 8001b9a:	6884      	ldr	r4, [r0, #8]
 8001b9c:	42a5      	cmp	r5, r4
 8001b9e:	d103      	bne.n	8001ba8 <chk_lock+0x24>
 8001ba0:	8914      	ldrh	r4, [r2, #8]
 8001ba2:	88c0      	ldrh	r0, [r0, #6]
 8001ba4:	4284      	cmp	r4, r0
 8001ba6:	d023      	beq.n	8001bf0 <chk_lock+0x6c>
 8001ba8:	2400      	movs	r4, #0
 8001baa:	e000      	b.n	8001bae <chk_lock+0x2a>
 8001bac:	2401      	movs	r4, #1
 8001bae:	68d0      	ldr	r0, [r2, #12]
 8001bb0:	b188      	cbz	r0, 8001bd6 <chk_lock+0x52>
 8001bb2:	f503 5380 	add.w	r3, r3, #4096	; 0x1000
 8001bb6:	681d      	ldr	r5, [r3, #0]
 8001bb8:	42a8      	cmp	r0, r5
 8001bba:	d107      	bne.n	8001bcc <chk_lock+0x48>
 8001bbc:	6915      	ldr	r5, [r2, #16]
 8001bbe:	6898      	ldr	r0, [r3, #8]
 8001bc0:	4285      	cmp	r5, r0
 8001bc2:	d103      	bne.n	8001bcc <chk_lock+0x48>
 8001bc4:	8a90      	ldrh	r0, [r2, #20]
 8001bc6:	88db      	ldrh	r3, [r3, #6]
 8001bc8:	4298      	cmp	r0, r3
 8001bca:	d016      	beq.n	8001bfa <chk_lock+0x76>
 8001bcc:	b974      	cbnz	r4, 8001bec <chk_lock+0x68>
 8001bce:	2902      	cmp	r1, #2
 8001bd0:	bf0c      	ite	eq
 8001bd2:	2000      	moveq	r0, #0
 8001bd4:	2012      	movne	r0, #18
 8001bd6:	bd30      	pop	{r4, r5, pc}
 8001bd8:	210c      	movs	r1, #12
 8001bda:	fb01 2303 	mla	r3, r1, r3, r2
 8001bde:	895b      	ldrh	r3, [r3, #10]
 8001be0:	f5b3 7f80 	cmp.w	r3, #256	; 0x100
 8001be4:	bf14      	ite	ne
 8001be6:	2000      	movne	r0, #0
 8001be8:	2010      	moveq	r0, #16
 8001bea:	e7f4      	b.n	8001bd6 <chk_lock+0x52>
 8001bec:	2000      	movs	r0, #0
 8001bee:	e7f2      	b.n	8001bd6 <chk_lock+0x52>
 8001bf0:	2300      	movs	r3, #0
 8001bf2:	2900      	cmp	r1, #0
 8001bf4:	d0f0      	beq.n	8001bd8 <chk_lock+0x54>
 8001bf6:	2010      	movs	r0, #16
 8001bf8:	e7ed      	b.n	8001bd6 <chk_lock+0x52>
 8001bfa:	2301      	movs	r3, #1
 8001bfc:	e7f9      	b.n	8001bf2 <chk_lock+0x6e>
 8001bfe:	bf00      	nop
 8001c00:	20002188 	.word	0x20002188

08001c04 <inc_lock>:
 8001c04:	4b21      	ldr	r3, [pc, #132]	; (8001c8c <inc_lock+0x88>)
 8001c06:	f500 5280 	add.w	r2, r0, #4096	; 0x1000
 8001c0a:	b5f0      	push	{r4, r5, r6, r7, lr}
 8001c0c:	6818      	ldr	r0, [r3, #0]
 8001c0e:	6816      	ldr	r6, [r2, #0]
 8001c10:	4286      	cmp	r6, r0
 8001c12:	d107      	bne.n	8001c24 <inc_lock+0x20>
 8001c14:	685d      	ldr	r5, [r3, #4]
 8001c16:	6894      	ldr	r4, [r2, #8]
 8001c18:	42a5      	cmp	r5, r4
 8001c1a:	d103      	bne.n	8001c24 <inc_lock+0x20>
 8001c1c:	88d5      	ldrh	r5, [r2, #6]
 8001c1e:	891c      	ldrh	r4, [r3, #8]
 8001c20:	42a5      	cmp	r5, r4
 8001c22:	d024      	beq.n	8001c6e <inc_lock+0x6a>
 8001c24:	68dc      	ldr	r4, [r3, #12]
 8001c26:	42b4      	cmp	r4, r6
 8001c28:	d107      	bne.n	8001c3a <inc_lock+0x36>
 8001c2a:	691f      	ldr	r7, [r3, #16]
 8001c2c:	6895      	ldr	r5, [r2, #8]
 8001c2e:	42af      	cmp	r7, r5
 8001c30:	d103      	bne.n	8001c3a <inc_lock+0x36>
 8001c32:	8a9f      	ldrh	r7, [r3, #20]
 8001c34:	88d5      	ldrh	r5, [r2, #6]
 8001c36:	42af      	cmp	r7, r5
 8001c38:	d024      	beq.n	8001c84 <inc_lock+0x80>
 8001c3a:	b108      	cbz	r0, 8001c40 <inc_lock+0x3c>
 8001c3c:	bb24      	cbnz	r4, 8001c88 <inc_lock+0x84>
 8001c3e:	2001      	movs	r0, #1
 8001c40:	240c      	movs	r4, #12
 8001c42:	4344      	muls	r4, r0
 8001c44:	191d      	adds	r5, r3, r4
 8001c46:	511e      	str	r6, [r3, r4]
 8001c48:	6894      	ldr	r4, [r2, #8]
 8001c4a:	88d2      	ldrh	r2, [r2, #6]
 8001c4c:	606c      	str	r4, [r5, #4]
 8001c4e:	812a      	strh	r2, [r5, #8]
 8001c50:	2200      	movs	r2, #0
 8001c52:	816a      	strh	r2, [r5, #10]
 8001c54:	b999      	cbnz	r1, 8001c7e <inc_lock+0x7a>
 8001c56:	220c      	movs	r2, #12
 8001c58:	fb02 3200 	mla	r2, r2, r0, r3
 8001c5c:	8952      	ldrh	r2, [r2, #10]
 8001c5e:	3201      	adds	r2, #1
 8001c60:	b292      	uxth	r2, r2
 8001c62:	210c      	movs	r1, #12
 8001c64:	fb01 3300 	mla	r3, r1, r0, r3
 8001c68:	3001      	adds	r0, #1
 8001c6a:	815a      	strh	r2, [r3, #10]
 8001c6c:	bdf0      	pop	{r4, r5, r6, r7, pc}
 8001c6e:	2000      	movs	r0, #0
 8001c70:	2900      	cmp	r1, #0
 8001c72:	d0f0      	beq.n	8001c56 <inc_lock+0x52>
 8001c74:	220c      	movs	r2, #12
 8001c76:	fb02 3200 	mla	r2, r2, r0, r3
 8001c7a:	8952      	ldrh	r2, [r2, #10]
 8001c7c:	b922      	cbnz	r2, 8001c88 <inc_lock+0x84>
 8001c7e:	f44f 7280 	mov.w	r2, #256	; 0x100
 8001c82:	e7ee      	b.n	8001c62 <inc_lock+0x5e>
 8001c84:	2001      	movs	r0, #1
 8001c86:	e7f3      	b.n	8001c70 <inc_lock+0x6c>
 8001c88:	2000      	movs	r0, #0
 8001c8a:	e7ef      	b.n	8001c6c <inc_lock+0x68>
 8001c8c:	20002188 	.word	0x20002188

08001c90 <dec_lock>:
 8001c90:	3801      	subs	r0, #1
 8001c92:	2801      	cmp	r0, #1
 8001c94:	d817      	bhi.n	8001cc6 <dec_lock+0x36>
 8001c96:	220c      	movs	r2, #12
 8001c98:	490c      	ldr	r1, [pc, #48]	; (8001ccc <dec_lock+0x3c>)
 8001c9a:	fb02 1200 	mla	r2, r2, r0, r1
 8001c9e:	8953      	ldrh	r3, [r2, #10]
 8001ca0:	f5b3 7f80 	cmp.w	r3, #256	; 0x100
 8001ca4:	d106      	bne.n	8001cb4 <dec_lock+0x24>
 8001ca6:	2300      	movs	r3, #0
 8001ca8:	8153      	strh	r3, [r2, #10]
 8001caa:	230c      	movs	r3, #12
 8001cac:	4358      	muls	r0, r3
 8001cae:	2300      	movs	r3, #0
 8001cb0:	500b      	str	r3, [r1, r0]
 8001cb2:	e006      	b.n	8001cc2 <dec_lock+0x32>
 8001cb4:	2b00      	cmp	r3, #0
 8001cb6:	d0f8      	beq.n	8001caa <dec_lock+0x1a>
 8001cb8:	3b01      	subs	r3, #1
 8001cba:	b29b      	uxth	r3, r3
 8001cbc:	8153      	strh	r3, [r2, #10]
 8001cbe:	2b00      	cmp	r3, #0
 8001cc0:	d0f3      	beq.n	8001caa <dec_lock+0x1a>
 8001cc2:	2000      	movs	r0, #0
 8001cc4:	4770      	bx	lr
 8001cc6:	2002      	movs	r0, #2
 8001cc8:	4770      	bx	lr
 8001cca:	bf00      	nop
 8001ccc:	20002188 	.word	0x20002188

08001cd0 <clear_lock>:
 8001cd0:	4b05      	ldr	r3, [pc, #20]	; (8001ce8 <clear_lock+0x18>)
 8001cd2:	681a      	ldr	r2, [r3, #0]
 8001cd4:	4290      	cmp	r0, r2
 8001cd6:	bf04      	itt	eq
 8001cd8:	2200      	moveq	r2, #0
 8001cda:	601a      	streq	r2, [r3, #0]
 8001cdc:	68da      	ldr	r2, [r3, #12]
 8001cde:	4290      	cmp	r0, r2
 8001ce0:	bf04      	itt	eq
 8001ce2:	2200      	moveq	r2, #0
 8001ce4:	60da      	streq	r2, [r3, #12]
 8001ce6:	4770      	bx	lr
 8001ce8:	20002188 	.word	0x20002188

08001cec <clmt_clust>:
 8001cec:	f500 5080 	add.w	r0, r0, #4096	; 0x1000
 8001cf0:	6802      	ldr	r2, [r0, #0]
 8001cf2:	6a43      	ldr	r3, [r0, #36]	; 0x24
 8001cf4:	f502 5280 	add.w	r2, r2, #4096	; 0x1000
 8001cf8:	8950      	ldrh	r0, [r2, #10]
 8001cfa:	7892      	ldrb	r2, [r2, #2]
 8001cfc:	fbb1 f1f0 	udiv	r1, r1, r0
 8001d00:	fbb1 f1f2 	udiv	r1, r1, r2
 8001d04:	3304      	adds	r3, #4
 8001d06:	6818      	ldr	r0, [r3, #0]
 8001d08:	b130      	cbz	r0, 8001d18 <clmt_clust+0x2c>
 8001d0a:	4281      	cmp	r1, r0
 8001d0c:	d302      	bcc.n	8001d14 <clmt_clust+0x28>
 8001d0e:	1a09      	subs	r1, r1, r0
 8001d10:	3308      	adds	r3, #8
 8001d12:	e7f8      	b.n	8001d06 <clmt_clust+0x1a>
 8001d14:	6858      	ldr	r0, [r3, #4]
 8001d16:	4408      	add	r0, r1
 8001d18:	4770      	bx	lr

08001d1a <sum_sfn>:
 8001d1a:	4603      	mov	r3, r0
 8001d1c:	f100 010b 	add.w	r1, r0, #11
 8001d20:	2000      	movs	r0, #0
 8001d22:	01c2      	lsls	r2, r0, #7
 8001d24:	ea42 0050 	orr.w	r0, r2, r0, lsr #1
 8001d28:	f813 2b01 	ldrb.w	r2, [r3], #1
 8001d2c:	4410      	add	r0, r2
 8001d2e:	428b      	cmp	r3, r1
 8001d30:	f000 00ff 	and.w	r0, r0, #255	; 0xff
 8001d34:	d1f5      	bne.n	8001d22 <sum_sfn+0x8>
 8001d36:	4770      	bx	lr

08001d38 <get_ldnumber>:
 8001d38:	6802      	ldr	r2, [r0, #0]
 8001d3a:	b510      	push	{r4, lr}
 8001d3c:	b152      	cbz	r2, 8001d54 <get_ldnumber+0x1c>
 8001d3e:	4611      	mov	r1, r2
 8001d40:	460b      	mov	r3, r1
 8001d42:	f811 4b01 	ldrb.w	r4, [r1], #1
 8001d46:	2c1f      	cmp	r4, #31
 8001d48:	d90c      	bls.n	8001d64 <get_ldnumber+0x2c>
 8001d4a:	2c3a      	cmp	r4, #58	; 0x3a
 8001d4c:	d1f8      	bne.n	8001d40 <get_ldnumber+0x8>
 8001d4e:	1c51      	adds	r1, r2, #1
 8001d50:	428b      	cmp	r3, r1
 8001d52:	d002      	beq.n	8001d5a <get_ldnumber+0x22>
 8001d54:	f04f 30ff 	mov.w	r0, #4294967295
 8001d58:	e005      	b.n	8001d66 <get_ldnumber+0x2e>
 8001d5a:	7812      	ldrb	r2, [r2, #0]
 8001d5c:	2a30      	cmp	r2, #48	; 0x30
 8001d5e:	d1f9      	bne.n	8001d54 <get_ldnumber+0x1c>
 8001d60:	3301      	adds	r3, #1
 8001d62:	6003      	str	r3, [r0, #0]
 8001d64:	2000      	movs	r0, #0
 8001d66:	bd10      	pop	{r4, pc}

08001d68 <validate>:
 8001d68:	b508      	push	{r3, lr}
 8001d6a:	b188      	cbz	r0, 8001d90 <validate+0x28>
 8001d6c:	f500 5080 	add.w	r0, r0, #4096	; 0x1000
 8001d70:	6803      	ldr	r3, [r0, #0]
 8001d72:	b16b      	cbz	r3, 8001d90 <validate+0x28>
 8001d74:	f503 5380 	add.w	r3, r3, #4096	; 0x1000
 8001d78:	781a      	ldrb	r2, [r3, #0]
 8001d7a:	b14a      	cbz	r2, 8001d90 <validate+0x28>
 8001d7c:	88d9      	ldrh	r1, [r3, #6]
 8001d7e:	8882      	ldrh	r2, [r0, #4]
 8001d80:	4291      	cmp	r1, r2
 8001d82:	d105      	bne.n	8001d90 <validate+0x28>
 8001d84:	7858      	ldrb	r0, [r3, #1]
 8001d86:	f7ff fea9 	bl	8001adc <disk_status>
 8001d8a:	f010 0001 	ands.w	r0, r0, #1
 8001d8e:	d000      	beq.n	8001d92 <validate+0x2a>
 8001d90:	2009      	movs	r0, #9
 8001d92:	bd08      	pop	{r3, pc}

08001d94 <sync_window.part.0>:
 8001d94:	e92d 41f0 	stmdb	sp!, {r4, r5, r6, r7, r8, lr}
 8001d98:	f500 5480 	add.w	r4, r0, #4096	; 0x1000
 8001d9c:	6ae6      	ldr	r6, [r4, #44]	; 0x2c
 8001d9e:	4601      	mov	r1, r0
 8001da0:	4607      	mov	r7, r0
 8001da2:	2301      	movs	r3, #1
 8001da4:	4632      	mov	r2, r6
 8001da6:	7860      	ldrb	r0, [r4, #1]
 8001da8:	f7ff fec0 	bl	8001b2c <disk_write>
 8001dac:	4605      	mov	r5, r0
 8001dae:	b9c0      	cbnz	r0, 8001de2 <sync_window.part.0+0x4e>
 8001db0:	6a23      	ldr	r3, [r4, #32]
 8001db2:	69a2      	ldr	r2, [r4, #24]
 8001db4:	1af3      	subs	r3, r6, r3
 8001db6:	4293      	cmp	r3, r2
 8001db8:	7120      	strb	r0, [r4, #4]
 8001dba:	d204      	bcs.n	8001dc6 <sync_window.part.0+0x32>
 8001dbc:	f894 8003 	ldrb.w	r8, [r4, #3]
 8001dc0:	f1b8 0f01 	cmp.w	r8, #1
 8001dc4:	d802      	bhi.n	8001dcc <sync_window.part.0+0x38>
 8001dc6:	4628      	mov	r0, r5
 8001dc8:	e8bd 81f0 	ldmia.w	sp!, {r4, r5, r6, r7, r8, pc}
 8001dcc:	69a3      	ldr	r3, [r4, #24]
 8001dce:	4639      	mov	r1, r7
 8001dd0:	441e      	add	r6, r3
 8001dd2:	4632      	mov	r2, r6
 8001dd4:	2301      	movs	r3, #1
 8001dd6:	7860      	ldrb	r0, [r4, #1]
 8001dd8:	f7ff fea8 	bl	8001b2c <disk_write>
 8001ddc:	f108 38ff 	add.w	r8, r8, #4294967295
 8001de0:	e7ee      	b.n	8001dc0 <sync_window.part.0+0x2c>
 8001de2:	2501      	movs	r5, #1
 8001de4:	e7ef      	b.n	8001dc6 <sync_window.part.0+0x32>

08001de6 <sync_window>:
 8001de6:	f500 5380 	add.w	r3, r0, #4096	; 0x1000
 8001dea:	791b      	ldrb	r3, [r3, #4]
 8001dec:	b10b      	cbz	r3, 8001df2 <sync_window+0xc>
 8001dee:	f7ff bfd1 	b.w	8001d94 <sync_window.part.0>
 8001df2:	4618      	mov	r0, r3
 8001df4:	4770      	bx	lr

08001df6 <move_window>:
 8001df6:	b570      	push	{r4, r5, r6, lr}
 8001df8:	f500 5680 	add.w	r6, r0, #4096	; 0x1000
 8001dfc:	6af3      	ldr	r3, [r6, #44]	; 0x2c
 8001dfe:	4605      	mov	r5, r0
 8001e00:	428b      	cmp	r3, r1
 8001e02:	460c      	mov	r4, r1
 8001e04:	d00f      	beq.n	8001e26 <move_window+0x30>
 8001e06:	f7ff ffee 	bl	8001de6 <sync_window>
 8001e0a:	b958      	cbnz	r0, 8001e24 <move_window+0x2e>
 8001e0c:	4622      	mov	r2, r4
 8001e0e:	2301      	movs	r3, #1
 8001e10:	4629      	mov	r1, r5
 8001e12:	7870      	ldrb	r0, [r6, #1]
 8001e14:	f7ff fe7c 	bl	8001b10 <disk_read>
 8001e18:	2800      	cmp	r0, #0
 8001e1a:	bf1c      	itt	ne
 8001e1c:	f04f 34ff 	movne.w	r4, #4294967295
 8001e20:	2001      	movne	r0, #1
 8001e22:	62f4      	str	r4, [r6, #44]	; 0x2c
 8001e24:	bd70      	pop	{r4, r5, r6, pc}
 8001e26:	2000      	movs	r0, #0
 8001e28:	e7fc      	b.n	8001e24 <move_window+0x2e>
	...

08001e2c <check_fs>:
 8001e2c:	2200      	movs	r2, #0
 8001e2e:	f500 5380 	add.w	r3, r0, #4096	; 0x1000
 8001e32:	b510      	push	{r4, lr}
 8001e34:	711a      	strb	r2, [r3, #4]
 8001e36:	f04f 32ff 	mov.w	r2, #4294967295
 8001e3a:	62da      	str	r2, [r3, #44]	; 0x2c
 8001e3c:	4604      	mov	r4, r0
 8001e3e:	f7ff ffda 	bl	8001df6 <move_window>
 8001e42:	b9a0      	cbnz	r0, 8001e6e <check_fs+0x42>
 8001e44:	f64a 2355 	movw	r3, #43605	; 0xaa55
 8001e48:	f8b4 21fe 	ldrh.w	r2, [r4, #510]	; 0x1fe
 8001e4c:	429a      	cmp	r2, r3
 8001e4e:	d110      	bne.n	8001e72 <check_fs+0x46>
 8001e50:	f8d4 3036 	ldr.w	r3, [r4, #54]	; 0x36
 8001e54:	4a08      	ldr	r2, [pc, #32]	; (8001e78 <check_fs+0x4c>)
 8001e56:	f023 437f 	bic.w	r3, r3, #4278190080	; 0xff000000
 8001e5a:	4293      	cmp	r3, r2
 8001e5c:	d006      	beq.n	8001e6c <check_fs+0x40>
 8001e5e:	f8d4 0052 	ldr.w	r0, [r4, #82]	; 0x52
 8001e62:	f020 407f 	bic.w	r0, r0, #4278190080	; 0xff000000
 8001e66:	1a80      	subs	r0, r0, r2
 8001e68:	bf18      	it	ne
 8001e6a:	2001      	movne	r0, #1
 8001e6c:	bd10      	pop	{r4, pc}
 8001e6e:	2003      	movs	r0, #3
 8001e70:	e7fc      	b.n	8001e6c <check_fs+0x40>
 8001e72:	2002      	movs	r0, #2
 8001e74:	e7fa      	b.n	8001e6c <check_fs+0x40>
 8001e76:	bf00      	nop
 8001e78:	00544146 	.word	0x00544146

08001e7c <find_volume>:
 8001e7c:	e92d 47ff 	stmdb	sp!, {r0, r1, r2, r3, r4, r5, r6, r7, r8, r9, sl, lr}
 8001e80:	2300      	movs	r3, #0
 8001e82:	4605      	mov	r5, r0
 8001e84:	6003      	str	r3, [r0, #0]
 8001e86:	4608      	mov	r0, r1
 8001e88:	4616      	mov	r6, r2
 8001e8a:	f7ff ff55 	bl	8001d38 <get_ldnumber>
 8001e8e:	1e07      	subs	r7, r0, #0
 8001e90:	f2c0 8115 	blt.w	80020be <find_volume+0x242>
 8001e94:	4b8d      	ldr	r3, [pc, #564]	; (80020cc <find_volume+0x250>)
 8001e96:	f853 4027 	ldr.w	r4, [r3, r7, lsl #2]
 8001e9a:	2c00      	cmp	r4, #0
 8001e9c:	f000 8111 	beq.w	80020c2 <find_volume+0x246>
 8001ea0:	602c      	str	r4, [r5, #0]
 8001ea2:	f504 5580 	add.w	r5, r4, #4096	; 0x1000
 8001ea6:	782b      	ldrb	r3, [r5, #0]
 8001ea8:	b16b      	cbz	r3, 8001ec6 <find_volume+0x4a>
 8001eaa:	7868      	ldrb	r0, [r5, #1]
 8001eac:	f7ff fe16 	bl	8001adc <disk_status>
 8001eb0:	07c1      	lsls	r1, r0, #31
 8001eb2:	d408      	bmi.n	8001ec6 <find_volume+0x4a>
 8001eb4:	b11e      	cbz	r6, 8001ebe <find_volume+0x42>
 8001eb6:	f010 0604 	ands.w	r6, r0, #4
 8001eba:	d000      	beq.n	8001ebe <find_volume+0x42>
 8001ebc:	260a      	movs	r6, #10
 8001ebe:	4630      	mov	r0, r6
 8001ec0:	b004      	add	sp, #16
 8001ec2:	e8bd 87f0 	ldmia.w	sp!, {r4, r5, r6, r7, r8, r9, sl, pc}
 8001ec6:	2300      	movs	r3, #0
 8001ec8:	b2f8      	uxtb	r0, r7
 8001eca:	702b      	strb	r3, [r5, #0]
 8001ecc:	7068      	strb	r0, [r5, #1]
 8001ece:	f7ff fe0f 	bl	8001af0 <disk_initialize>
 8001ed2:	07c2      	lsls	r2, r0, #31
 8001ed4:	f100 80f7 	bmi.w	80020c6 <find_volume+0x24a>
 8001ed8:	b10e      	cbz	r6, 8001ede <find_volume+0x62>
 8001eda:	0743      	lsls	r3, r0, #29
 8001edc:	d4ee      	bmi.n	8001ebc <find_volume+0x40>
 8001ede:	f504 5280 	add.w	r2, r4, #4096	; 0x1000
 8001ee2:	2102      	movs	r1, #2
 8001ee4:	7868      	ldrb	r0, [r5, #1]
 8001ee6:	320a      	adds	r2, #10
 8001ee8:	f7ff fe2e 	bl	8001b48 <disk_ioctl>
 8001eec:	4606      	mov	r6, r0
 8001eee:	b108      	cbz	r0, 8001ef4 <find_volume+0x78>
 8001ef0:	2601      	movs	r6, #1
 8001ef2:	e7e4      	b.n	8001ebe <find_volume+0x42>
 8001ef4:	896b      	ldrh	r3, [r5, #10]
 8001ef6:	f5a3 7300 	sub.w	r3, r3, #512	; 0x200
 8001efa:	b29b      	uxth	r3, r3
 8001efc:	f5b3 6f60 	cmp.w	r3, #3584	; 0xe00
 8001f00:	d8f6      	bhi.n	8001ef0 <find_volume+0x74>
 8001f02:	4601      	mov	r1, r0
 8001f04:	4620      	mov	r0, r4
 8001f06:	f7ff ff91 	bl	8001e2c <check_fs>
 8001f0a:	2801      	cmp	r0, #1
 8001f0c:	f040 80bb 	bne.w	8002086 <find_volume+0x20a>
 8001f10:	466f      	mov	r7, sp
 8001f12:	4639      	mov	r1, r7
 8001f14:	f504 73df 	add.w	r3, r4, #446	; 0x1be
 8001f18:	f504 70ff 	add.w	r0, r4, #510	; 0x1fe
 8001f1c:	791a      	ldrb	r2, [r3, #4]
 8001f1e:	b102      	cbz	r2, 8001f22 <find_volume+0xa6>
 8001f20:	689a      	ldr	r2, [r3, #8]
 8001f22:	3310      	adds	r3, #16
 8001f24:	4283      	cmp	r3, r0
 8001f26:	f841 2b04 	str.w	r2, [r1], #4
 8001f2a:	d1f7      	bne.n	8001f1c <find_volume+0xa0>
 8001f2c:	f04f 0900 	mov.w	r9, #0
 8001f30:	f857 8b04 	ldr.w	r8, [r7], #4
 8001f34:	f1b8 0f00 	cmp.w	r8, #0
 8001f38:	f000 809b 	beq.w	8002072 <find_volume+0x1f6>
 8001f3c:	4641      	mov	r1, r8
 8001f3e:	4620      	mov	r0, r4
 8001f40:	f7ff ff74 	bl	8001e2c <check_fs>
 8001f44:	2800      	cmp	r0, #0
 8001f46:	f040 8095 	bne.w	8002074 <find_volume+0x1f8>
 8001f4a:	f8b5 c00a 	ldrh.w	ip, [r5, #10]
 8001f4e:	f8b4 300b 	ldrh.w	r3, [r4, #11]
 8001f52:	4563      	cmp	r3, ip
 8001f54:	f040 809b 	bne.w	800208e <find_volume+0x212>
 8001f58:	8ae1      	ldrh	r1, [r4, #22]
 8001f5a:	b901      	cbnz	r1, 8001f5e <find_volume+0xe2>
 8001f5c:	6a61      	ldr	r1, [r4, #36]	; 0x24
 8001f5e:	f894 e010 	ldrb.w	lr, [r4, #16]
 8001f62:	61a9      	str	r1, [r5, #24]
 8001f64:	f10e 33ff 	add.w	r3, lr, #4294967295
 8001f68:	2b01      	cmp	r3, #1
 8001f6a:	f885 e003 	strb.w	lr, [r5, #3]
 8001f6e:	f200 808e 	bhi.w	800208e <find_volume+0x212>
 8001f72:	7b67      	ldrb	r7, [r4, #13]
 8001f74:	70af      	strb	r7, [r5, #2]
 8001f76:	2f00      	cmp	r7, #0
 8001f78:	f000 8089 	beq.w	800208e <find_volume+0x212>
 8001f7c:	1e7b      	subs	r3, r7, #1
 8001f7e:	423b      	tst	r3, r7
 8001f80:	f040 8085 	bne.w	800208e <find_volume+0x212>
 8001f84:	f8b4 9011 	ldrh.w	r9, [r4, #17]
 8001f88:	ea4f 135c 	mov.w	r3, ip, lsr #5
 8001f8c:	fbb9 f2f3 	udiv	r2, r9, r3
 8001f90:	fb03 9312 	mls	r3, r3, r2, r9
 8001f94:	b29b      	uxth	r3, r3
 8001f96:	f8a5 9008 	strh.w	r9, [r5, #8]
 8001f9a:	2b00      	cmp	r3, #0
 8001f9c:	d177      	bne.n	800208e <find_volume+0x212>
 8001f9e:	f8b4 3013 	ldrh.w	r3, [r4, #19]
 8001fa2:	b903      	cbnz	r3, 8001fa6 <find_volume+0x12a>
 8001fa4:	6a23      	ldr	r3, [r4, #32]
 8001fa6:	89e0      	ldrh	r0, [r4, #14]
 8001fa8:	2800      	cmp	r0, #0
 8001faa:	d070      	beq.n	800208e <find_volume+0x212>
 8001fac:	fb01 fe0e 	mul.w	lr, r1, lr
 8001fb0:	4402      	add	r2, r0
 8001fb2:	4472      	add	r2, lr
 8001fb4:	4293      	cmp	r3, r2
 8001fb6:	d36a      	bcc.n	800208e <find_volume+0x212>
 8001fb8:	1a9b      	subs	r3, r3, r2
 8001fba:	42bb      	cmp	r3, r7
 8001fbc:	fbb3 faf7 	udiv	sl, r3, r7
 8001fc0:	d365      	bcc.n	800208e <find_volume+0x212>
 8001fc2:	f640 73f5 	movw	r3, #4085	; 0xff5
 8001fc6:	459a      	cmp	sl, r3
 8001fc8:	d965      	bls.n	8002096 <find_volume+0x21a>
 8001fca:	f64f 77f5 	movw	r7, #65525	; 0xfff5
 8001fce:	45ba      	cmp	sl, r7
 8001fd0:	bf94      	ite	ls
 8001fd2:	2702      	movls	r7, #2
 8001fd4:	2703      	movhi	r7, #3
 8001fd6:	f10a 0302 	add.w	r3, sl, #2
 8001fda:	4440      	add	r0, r8
 8001fdc:	4442      	add	r2, r8
 8001fde:	2f03      	cmp	r7, #3
 8001fe0:	616b      	str	r3, [r5, #20]
 8001fe2:	f8c5 801c 	str.w	r8, [r5, #28]
 8001fe6:	6228      	str	r0, [r5, #32]
 8001fe8:	62aa      	str	r2, [r5, #40]	; 0x28
 8001fea:	d156      	bne.n	800209a <find_volume+0x21e>
 8001fec:	f1b9 0f00 	cmp.w	r9, #0
 8001ff0:	d14d      	bne.n	800208e <find_volume+0x212>
 8001ff2:	6ae2      	ldr	r2, [r4, #44]	; 0x2c
 8001ff4:	009b      	lsls	r3, r3, #2
 8001ff6:	626a      	str	r2, [r5, #36]	; 0x24
 8001ff8:	f10c 32ff 	add.w	r2, ip, #4294967295
 8001ffc:	4413      	add	r3, r2
 8001ffe:	fbb3 fcfc 	udiv	ip, r3, ip
 8002002:	458c      	cmp	ip, r1
 8002004:	d843      	bhi.n	800208e <find_volume+0x212>
 8002006:	f04f 33ff 	mov.w	r3, #4294967295
 800200a:	e9c5 3303 	strd	r3, r3, [r5, #12]
 800200e:	2380      	movs	r3, #128	; 0x80
 8002010:	2f03      	cmp	r7, #3
 8002012:	716b      	strb	r3, [r5, #5]
 8002014:	d122      	bne.n	800205c <find_volume+0x1e0>
 8002016:	8e23      	ldrh	r3, [r4, #48]	; 0x30
 8002018:	2b01      	cmp	r3, #1
 800201a:	d11f      	bne.n	800205c <find_volume+0x1e0>
 800201c:	4620      	mov	r0, r4
 800201e:	f108 0101 	add.w	r1, r8, #1
 8002022:	f7ff fee8 	bl	8001df6 <move_window>
 8002026:	b9c8      	cbnz	r0, 800205c <find_volume+0x1e0>
 8002028:	f64a 2355 	movw	r3, #43605	; 0xaa55
 800202c:	7168      	strb	r0, [r5, #5]
 800202e:	f8b4 21fe 	ldrh.w	r2, [r4, #510]	; 0x1fe
 8002032:	429a      	cmp	r2, r3
 8002034:	d112      	bne.n	800205c <find_volume+0x1e0>
 8002036:	6822      	ldr	r2, [r4, #0]
 8002038:	4b25      	ldr	r3, [pc, #148]	; (80020d0 <find_volume+0x254>)
 800203a:	429a      	cmp	r2, r3
 800203c:	d10e      	bne.n	800205c <find_volume+0x1e0>
 800203e:	f103 53ff 	add.w	r3, r3, #534773760	; 0x1fe00000
 8002042:	f8d4 21e4 	ldr.w	r2, [r4, #484]	; 0x1e4
 8002046:	f503 5300 	add.w	r3, r3, #8192	; 0x2000
 800204a:	3320      	adds	r3, #32
 800204c:	429a      	cmp	r2, r3
 800204e:	bf01      	itttt	eq
 8002050:	f8d4 31e8 	ldreq.w	r3, [r4, #488]	; 0x1e8
 8002054:	612b      	streq	r3, [r5, #16]
 8002056:	f8d4 31ec 	ldreq.w	r3, [r4, #492]	; 0x1ec
 800205a:	60eb      	streq	r3, [r5, #12]
 800205c:	4a1d      	ldr	r2, [pc, #116]	; (80020d4 <find_volume+0x258>)
 800205e:	4620      	mov	r0, r4
 8002060:	8813      	ldrh	r3, [r2, #0]
 8002062:	702f      	strb	r7, [r5, #0]
 8002064:	3301      	adds	r3, #1
 8002066:	b29b      	uxth	r3, r3
 8002068:	80eb      	strh	r3, [r5, #6]
 800206a:	8013      	strh	r3, [r2, #0]
 800206c:	f7ff fe30 	bl	8001cd0 <clear_lock>
 8002070:	e725      	b.n	8001ebe <find_volume+0x42>
 8002072:	2002      	movs	r0, #2
 8002074:	f109 0901 	add.w	r9, r9, #1
 8002078:	f1b9 0f04 	cmp.w	r9, #4
 800207c:	f47f af58 	bne.w	8001f30 <find_volume+0xb4>
 8002080:	2803      	cmp	r0, #3
 8002082:	d104      	bne.n	800208e <find_volume+0x212>
 8002084:	e734      	b.n	8001ef0 <find_volume+0x74>
 8002086:	2803      	cmp	r0, #3
 8002088:	f43f af32 	beq.w	8001ef0 <find_volume+0x74>
 800208c:	b108      	cbz	r0, 8002092 <find_volume+0x216>
 800208e:	260d      	movs	r6, #13
 8002090:	e715      	b.n	8001ebe <find_volume+0x42>
 8002092:	46b0      	mov	r8, r6
 8002094:	e759      	b.n	8001f4a <find_volume+0xce>
 8002096:	2701      	movs	r7, #1
 8002098:	e79d      	b.n	8001fd6 <find_volume+0x15a>
 800209a:	f1b9 0f00 	cmp.w	r9, #0
 800209e:	d0f6      	beq.n	800208e <find_volume+0x212>
 80020a0:	2f02      	cmp	r7, #2
 80020a2:	ea4f 0243 	mov.w	r2, r3, lsl #1
 80020a6:	bf18      	it	ne
 80020a8:	18d2      	addne	r2, r2, r3
 80020aa:	4470      	add	r0, lr
 80020ac:	bf14      	ite	ne
 80020ae:	f003 0301 	andne.w	r3, r3, #1
 80020b2:	4613      	moveq	r3, r2
 80020b4:	6268      	str	r0, [r5, #36]	; 0x24
 80020b6:	bf18      	it	ne
 80020b8:	eb03 0352 	addne.w	r3, r3, r2, lsr #1
 80020bc:	e79c      	b.n	8001ff8 <find_volume+0x17c>
 80020be:	260b      	movs	r6, #11
 80020c0:	e6fd      	b.n	8001ebe <find_volume+0x42>
 80020c2:	260c      	movs	r6, #12
 80020c4:	e6fb      	b.n	8001ebe <find_volume+0x42>
 80020c6:	2603      	movs	r6, #3
 80020c8:	e6f9      	b.n	8001ebe <find_volume+0x42>
 80020ca:	bf00      	nop
 80020cc:	20002184 	.word	0x20002184
 80020d0:	41615252 	.word	0x41615252
 80020d4:	200021a0 	.word	0x200021a0

080020d8 <sync_fs>:
 80020d8:	b570      	push	{r4, r5, r6, lr}
 80020da:	4605      	mov	r5, r0
 80020dc:	f7ff fe83 	bl	8001de6 <sync_window>
 80020e0:	4606      	mov	r6, r0
 80020e2:	bb78      	cbnz	r0, 8002144 <sync_fs+0x6c>
 80020e4:	f505 5480 	add.w	r4, r5, #4096	; 0x1000
 80020e8:	7823      	ldrb	r3, [r4, #0]
 80020ea:	2b03      	cmp	r3, #3
 80020ec:	d122      	bne.n	8002134 <sync_fs+0x5c>
 80020ee:	7963      	ldrb	r3, [r4, #5]
 80020f0:	2b01      	cmp	r3, #1
 80020f2:	d11f      	bne.n	8002134 <sync_fs+0x5c>
 80020f4:	4601      	mov	r1, r0
 80020f6:	8962      	ldrh	r2, [r4, #10]
 80020f8:	4628      	mov	r0, r5
 80020fa:	f7ff fd3b 	bl	8001b74 <mem_set>
 80020fe:	f64a 2255 	movw	r2, #43605	; 0xaa55
 8002102:	f8a5 21fe 	strh.w	r2, [r5, #510]	; 0x1fe
 8002106:	4a10      	ldr	r2, [pc, #64]	; (8002148 <sync_fs+0x70>)
 8002108:	4629      	mov	r1, r5
 800210a:	602a      	str	r2, [r5, #0]
 800210c:	f102 52ff 	add.w	r2, r2, #534773760	; 0x1fe00000
 8002110:	f502 5200 	add.w	r2, r2, #8192	; 0x2000
 8002114:	3220      	adds	r2, #32
 8002116:	f8c5 21e4 	str.w	r2, [r5, #484]	; 0x1e4
 800211a:	6922      	ldr	r2, [r4, #16]
 800211c:	f8c5 21e8 	str.w	r2, [r5, #488]	; 0x1e8
 8002120:	68e2      	ldr	r2, [r4, #12]
 8002122:	f8c5 21ec 	str.w	r2, [r5, #492]	; 0x1ec
 8002126:	69e2      	ldr	r2, [r4, #28]
 8002128:	7860      	ldrb	r0, [r4, #1]
 800212a:	3201      	adds	r2, #1
 800212c:	62e2      	str	r2, [r4, #44]	; 0x2c
 800212e:	f7ff fcfd 	bl	8001b2c <disk_write>
 8002132:	7166      	strb	r6, [r4, #5]
 8002134:	2200      	movs	r2, #0
 8002136:	7860      	ldrb	r0, [r4, #1]
 8002138:	4611      	mov	r1, r2
 800213a:	f7ff fd05 	bl	8001b48 <disk_ioctl>
 800213e:	3800      	subs	r0, #0
 8002140:	bf18      	it	ne
 8002142:	2001      	movne	r0, #1
 8002144:	bd70      	pop	{r4, r5, r6, pc}
 8002146:	bf00      	nop
 8002148:	41615252 	.word	0x41615252

0800214c <ld_clust.isra.0>:
 800214c:	2803      	cmp	r0, #3
 800214e:	8b4b      	ldrh	r3, [r1, #26]
 8002150:	bf04      	itt	eq
 8002152:	8a8a      	ldrheq	r2, [r1, #20]
 8002154:	ea43 4302 	orreq.w	r3, r3, r2, lsl #16
 8002158:	4618      	mov	r0, r3
 800215a:	4770      	bx	lr

0800215c <clust2sect>:
 800215c:	f500 5080 	add.w	r0, r0, #4096	; 0x1000
 8002160:	6943      	ldr	r3, [r0, #20]
 8002162:	3902      	subs	r1, #2
 8002164:	3b02      	subs	r3, #2
 8002166:	428b      	cmp	r3, r1
 8002168:	bf83      	ittte	hi
 800216a:	7883      	ldrbhi	r3, [r0, #2]
 800216c:	6a80      	ldrhi	r0, [r0, #40]	; 0x28
 800216e:	fb01 0003 	mlahi	r0, r1, r3, r0
 8002172:	2000      	movls	r0, #0
 8002174:	4770      	bx	lr

08002176 <get_fat>:
 8002176:	2901      	cmp	r1, #1
 8002178:	e92d 41f0 	stmdb	sp!, {r4, r5, r6, r7, r8, lr}
 800217c:	4606      	mov	r6, r0
 800217e:	460d      	mov	r5, r1
 8002180:	d96d      	bls.n	800225e <get_fat+0xe8>
 8002182:	f500 5780 	add.w	r7, r0, #4096	; 0x1000
 8002186:	697b      	ldr	r3, [r7, #20]
 8002188:	428b      	cmp	r3, r1
 800218a:	d968      	bls.n	800225e <get_fat+0xe8>
 800218c:	783b      	ldrb	r3, [r7, #0]
 800218e:	2b02      	cmp	r3, #2
 8002190:	d031      	beq.n	80021f6 <get_fat+0x80>
 8002192:	2b03      	cmp	r3, #3
 8002194:	d045      	beq.n	8002222 <get_fat+0xac>
 8002196:	2b01      	cmp	r3, #1
 8002198:	d161      	bne.n	800225e <get_fat+0xe8>
 800219a:	897b      	ldrh	r3, [r7, #10]
 800219c:	eb01 0451 	add.w	r4, r1, r1, lsr #1
 80021a0:	fbb4 f3f3 	udiv	r3, r4, r3
 80021a4:	6a39      	ldr	r1, [r7, #32]
 80021a6:	4419      	add	r1, r3
 80021a8:	f7ff fe25 	bl	8001df6 <move_window>
 80021ac:	b118      	cbz	r0, 80021b6 <get_fat+0x40>
 80021ae:	f04f 30ff 	mov.w	r0, #4294967295
 80021b2:	e8bd 81f0 	ldmia.w	sp!, {r4, r5, r6, r7, r8, pc}
 80021b6:	8979      	ldrh	r1, [r7, #10]
 80021b8:	f104 0801 	add.w	r8, r4, #1
 80021bc:	fbb4 f3f1 	udiv	r3, r4, r1
 80021c0:	fb01 4413 	mls	r4, r1, r3, r4
 80021c4:	fbb8 f1f1 	udiv	r1, r8, r1
 80021c8:	6a3b      	ldr	r3, [r7, #32]
 80021ca:	4630      	mov	r0, r6
 80021cc:	4419      	add	r1, r3
 80021ce:	5d34      	ldrb	r4, [r6, r4]
 80021d0:	f7ff fe11 	bl	8001df6 <move_window>
 80021d4:	2800      	cmp	r0, #0
 80021d6:	d1ea      	bne.n	80021ae <get_fat+0x38>
 80021d8:	897b      	ldrh	r3, [r7, #10]
 80021da:	fbb8 f2f3 	udiv	r2, r8, r3
 80021de:	fb03 8812 	mls	r8, r3, r2, r8
 80021e2:	f816 0008 	ldrb.w	r0, [r6, r8]
 80021e6:	07eb      	lsls	r3, r5, #31
 80021e8:	ea44 2000 	orr.w	r0, r4, r0, lsl #8
 80021ec:	bf4c      	ite	mi
 80021ee:	0900      	lsrmi	r0, r0, #4
 80021f0:	f3c0 000b 	ubfxpl	r0, r0, #0, #12
 80021f4:	e7dd      	b.n	80021b2 <get_fat+0x3c>
 80021f6:	897b      	ldrh	r3, [r7, #10]
 80021f8:	085b      	lsrs	r3, r3, #1
 80021fa:	fbb1 f3f3 	udiv	r3, r1, r3
 80021fe:	6a39      	ldr	r1, [r7, #32]
 8002200:	4419      	add	r1, r3
 8002202:	f7ff fdf8 	bl	8001df6 <move_window>
 8002206:	2800      	cmp	r0, #0
 8002208:	d1d1      	bne.n	80021ae <get_fat+0x38>
 800220a:	8979      	ldrh	r1, [r7, #10]
 800220c:	006d      	lsls	r5, r5, #1
 800220e:	fbb5 f3f1 	udiv	r3, r5, r1
 8002212:	fb01 5513 	mls	r5, r1, r3, r5
 8002216:	1973      	adds	r3, r6, r5
 8002218:	785b      	ldrb	r3, [r3, #1]
 800221a:	5d70      	ldrb	r0, [r6, r5]
 800221c:	ea40 2003 	orr.w	r0, r0, r3, lsl #8
 8002220:	e7c7      	b.n	80021b2 <get_fat+0x3c>
 8002222:	897b      	ldrh	r3, [r7, #10]
 8002224:	089b      	lsrs	r3, r3, #2
 8002226:	fbb1 f3f3 	udiv	r3, r1, r3
 800222a:	6a39      	ldr	r1, [r7, #32]
 800222c:	4419      	add	r1, r3
 800222e:	f7ff fde2 	bl	8001df6 <move_window>
 8002232:	2800      	cmp	r0, #0
 8002234:	d1bb      	bne.n	80021ae <get_fat+0x38>
 8002236:	8979      	ldrh	r1, [r7, #10]
 8002238:	00ad      	lsls	r5, r5, #2
 800223a:	fbb5 f3f1 	udiv	r3, r5, r1
 800223e:	fb01 5513 	mls	r5, r1, r3, r5
 8002242:	1973      	adds	r3, r6, r5
 8002244:	7898      	ldrb	r0, [r3, #2]
 8002246:	78da      	ldrb	r2, [r3, #3]
 8002248:	0400      	lsls	r0, r0, #16
 800224a:	ea40 6002 	orr.w	r0, r0, r2, lsl #24
 800224e:	5d72      	ldrb	r2, [r6, r5]
 8002250:	785b      	ldrb	r3, [r3, #1]
 8002252:	4310      	orrs	r0, r2
 8002254:	ea40 2003 	orr.w	r0, r0, r3, lsl #8
 8002258:	f020 4070 	bic.w	r0, r0, #4026531840	; 0xf0000000
 800225c:	e7a9      	b.n	80021b2 <get_fat+0x3c>
 800225e:	2001      	movs	r0, #1
 8002260:	e7a7      	b.n	80021b2 <get_fat+0x3c>

08002262 <dir_sdi>:
 8002262:	b570      	push	{r4, r5, r6, lr}
 8002264:	f500 5480 	add.w	r4, r0, #4096	; 0x1000
 8002268:	68a2      	ldr	r2, [r4, #8]
 800226a:	460d      	mov	r5, r1
 800226c:	2a01      	cmp	r2, #1
 800226e:	80e1      	strh	r1, [r4, #6]
 8002270:	d101      	bne.n	8002276 <dir_sdi+0x14>
 8002272:	2002      	movs	r0, #2
 8002274:	bd70      	pop	{r4, r5, r6, pc}
 8002276:	6823      	ldr	r3, [r4, #0]
 8002278:	f503 5380 	add.w	r3, r3, #4096	; 0x1000
 800227c:	6959      	ldr	r1, [r3, #20]
 800227e:	4291      	cmp	r1, r2
 8002280:	d9f7      	bls.n	8002272 <dir_sdi+0x10>
 8002282:	b9e2      	cbnz	r2, 80022be <dir_sdi+0x5c>
 8002284:	7819      	ldrb	r1, [r3, #0]
 8002286:	2903      	cmp	r1, #3
 8002288:	d101      	bne.n	800228e <dir_sdi+0x2c>
 800228a:	6a59      	ldr	r1, [r3, #36]	; 0x24
 800228c:	b9b1      	cbnz	r1, 80022bc <dir_sdi+0x5a>
 800228e:	8919      	ldrh	r1, [r3, #8]
 8002290:	42a9      	cmp	r1, r5
 8002292:	d9ee      	bls.n	8002272 <dir_sdi+0x10>
 8002294:	6a58      	ldr	r0, [r3, #36]	; 0x24
 8002296:	60e2      	str	r2, [r4, #12]
 8002298:	2800      	cmp	r0, #0
 800229a:	d0ea      	beq.n	8002272 <dir_sdi+0x10>
 800229c:	6823      	ldr	r3, [r4, #0]
 800229e:	f503 5280 	add.w	r2, r3, #4096	; 0x1000
 80022a2:	8951      	ldrh	r1, [r2, #10]
 80022a4:	0949      	lsrs	r1, r1, #5
 80022a6:	fbb5 f2f1 	udiv	r2, r5, r1
 80022aa:	fb01 5512 	mls	r5, r1, r2, r5
 80022ae:	4410      	add	r0, r2
 80022b0:	eb03 1545 	add.w	r5, r3, r5, lsl #5
 80022b4:	6120      	str	r0, [r4, #16]
 80022b6:	6165      	str	r5, [r4, #20]
 80022b8:	2000      	movs	r0, #0
 80022ba:	e7db      	b.n	8002274 <dir_sdi+0x12>
 80022bc:	460a      	mov	r2, r1
 80022be:	895e      	ldrh	r6, [r3, #10]
 80022c0:	789b      	ldrb	r3, [r3, #2]
 80022c2:	0976      	lsrs	r6, r6, #5
 80022c4:	435e      	muls	r6, r3
 80022c6:	42b5      	cmp	r5, r6
 80022c8:	4611      	mov	r1, r2
 80022ca:	6820      	ldr	r0, [r4, #0]
 80022cc:	d202      	bcs.n	80022d4 <dir_sdi+0x72>
 80022ce:	f7ff ff45 	bl	800215c <clust2sect>
 80022d2:	e7e0      	b.n	8002296 <dir_sdi+0x34>
 80022d4:	f7ff ff4f 	bl	8002176 <get_fat>
 80022d8:	1c43      	adds	r3, r0, #1
 80022da:	4602      	mov	r2, r0
 80022dc:	d009      	beq.n	80022f2 <dir_sdi+0x90>
 80022de:	2801      	cmp	r0, #1
 80022e0:	d9c7      	bls.n	8002272 <dir_sdi+0x10>
 80022e2:	6823      	ldr	r3, [r4, #0]
 80022e4:	f503 5380 	add.w	r3, r3, #4096	; 0x1000
 80022e8:	695b      	ldr	r3, [r3, #20]
 80022ea:	4283      	cmp	r3, r0
 80022ec:	d9c1      	bls.n	8002272 <dir_sdi+0x10>
 80022ee:	1bad      	subs	r5, r5, r6
 80022f0:	e7e9      	b.n	80022c6 <dir_sdi+0x64>
 80022f2:	2001      	movs	r0, #1
 80022f4:	e7be      	b.n	8002274 <dir_sdi+0x12>

080022f6 <put_fat>:
 80022f6:	2901      	cmp	r1, #1
 80022f8:	e92d 43f8 	stmdb	sp!, {r3, r4, r5, r6, r7, r8, r9, lr}
 80022fc:	4606      	mov	r6, r0
 80022fe:	460c      	mov	r4, r1
 8002300:	4617      	mov	r7, r2
 8002302:	f240 8082 	bls.w	800240a <put_fat+0x114>
 8002306:	f500 5580 	add.w	r5, r0, #4096	; 0x1000
 800230a:	696b      	ldr	r3, [r5, #20]
 800230c:	428b      	cmp	r3, r1
 800230e:	d97c      	bls.n	800240a <put_fat+0x114>
 8002310:	782b      	ldrb	r3, [r5, #0]
 8002312:	2b02      	cmp	r3, #2
 8002314:	d043      	beq.n	800239e <put_fat+0xa8>
 8002316:	2b03      	cmp	r3, #3
 8002318:	d057      	beq.n	80023ca <put_fat+0xd4>
 800231a:	2b01      	cmp	r3, #1
 800231c:	d175      	bne.n	800240a <put_fat+0x114>
 800231e:	896b      	ldrh	r3, [r5, #10]
 8002320:	eb01 0851 	add.w	r8, r1, r1, lsr #1
 8002324:	fbb8 f3f3 	udiv	r3, r8, r3
 8002328:	6a29      	ldr	r1, [r5, #32]
 800232a:	4419      	add	r1, r3
 800232c:	f7ff fd63 	bl	8001df6 <move_window>
 8002330:	bb58      	cbnz	r0, 800238a <put_fat+0x94>
 8002332:	8969      	ldrh	r1, [r5, #10]
 8002334:	f108 0901 	add.w	r9, r8, #1
 8002338:	fbb8 f3f1 	udiv	r3, r8, r1
 800233c:	fb01 8813 	mls	r8, r1, r3, r8
 8002340:	f014 0401 	ands.w	r4, r4, #1
 8002344:	bf17      	itett	ne
 8002346:	f816 3008 	ldrbne.w	r3, [r6, r8]
 800234a:	b2fb      	uxtbeq	r3, r7
 800234c:	f003 020f 	andne.w	r2, r3, #15
 8002350:	013b      	lslne	r3, r7, #4
 8002352:	bf1c      	itt	ne
 8002354:	f003 03f0 	andne.w	r3, r3, #240	; 0xf0
 8002358:	4313      	orrne	r3, r2
 800235a:	f806 3008 	strb.w	r3, [r6, r8]
 800235e:	2301      	movs	r3, #1
 8002360:	fbb9 f1f1 	udiv	r1, r9, r1
 8002364:	712b      	strb	r3, [r5, #4]
 8002366:	6a2b      	ldr	r3, [r5, #32]
 8002368:	4630      	mov	r0, r6
 800236a:	4419      	add	r1, r3
 800236c:	f7ff fd43 	bl	8001df6 <move_window>
 8002370:	b958      	cbnz	r0, 800238a <put_fat+0x94>
 8002372:	896b      	ldrh	r3, [r5, #10]
 8002374:	fbb9 f2f3 	udiv	r2, r9, r3
 8002378:	fb03 9912 	mls	r9, r3, r2, r9
 800237c:	b13c      	cbz	r4, 800238e <put_fat+0x98>
 800237e:	f3c7 1207 	ubfx	r2, r7, #4, #8
 8002382:	f806 2009 	strb.w	r2, [r6, r9]
 8002386:	2301      	movs	r3, #1
 8002388:	712b      	strb	r3, [r5, #4]
 800238a:	e8bd 83f8 	ldmia.w	sp!, {r3, r4, r5, r6, r7, r8, r9, pc}
 800238e:	f816 2009 	ldrb.w	r2, [r6, r9]
 8002392:	f022 030f 	bic.w	r3, r2, #15
 8002396:	f3c7 2203 	ubfx	r2, r7, #8, #4
 800239a:	431a      	orrs	r2, r3
 800239c:	e7f1      	b.n	8002382 <put_fat+0x8c>
 800239e:	896b      	ldrh	r3, [r5, #10]
 80023a0:	085b      	lsrs	r3, r3, #1
 80023a2:	fbb1 f3f3 	udiv	r3, r1, r3
 80023a6:	6a29      	ldr	r1, [r5, #32]
 80023a8:	4419      	add	r1, r3
 80023aa:	f7ff fd24 	bl	8001df6 <move_window>
 80023ae:	2800      	cmp	r0, #0
 80023b0:	d1eb      	bne.n	800238a <put_fat+0x94>
 80023b2:	8969      	ldrh	r1, [r5, #10]
 80023b4:	0064      	lsls	r4, r4, #1
 80023b6:	fbb4 f3f1 	udiv	r3, r4, r1
 80023ba:	fb01 4413 	mls	r4, r1, r3, r4
 80023be:	f3c7 2207 	ubfx	r2, r7, #8, #8
 80023c2:	5537      	strb	r7, [r6, r4]
 80023c4:	4434      	add	r4, r6
 80023c6:	7062      	strb	r2, [r4, #1]
 80023c8:	e7dd      	b.n	8002386 <put_fat+0x90>
 80023ca:	896b      	ldrh	r3, [r5, #10]
 80023cc:	089b      	lsrs	r3, r3, #2
 80023ce:	fbb1 f3f3 	udiv	r3, r1, r3
 80023d2:	6a29      	ldr	r1, [r5, #32]
 80023d4:	4419      	add	r1, r3
 80023d6:	f7ff fd0e 	bl	8001df6 <move_window>
 80023da:	2800      	cmp	r0, #0
 80023dc:	d1d5      	bne.n	800238a <put_fat+0x94>
 80023de:	8969      	ldrh	r1, [r5, #10]
 80023e0:	00a4      	lsls	r4, r4, #2
 80023e2:	fbb4 f3f1 	udiv	r3, r4, r1
 80023e6:	fb01 4413 	mls	r4, r1, r3, r4
 80023ea:	1931      	adds	r1, r6, r4
 80023ec:	78cb      	ldrb	r3, [r1, #3]
 80023ee:	061b      	lsls	r3, r3, #24
 80023f0:	f003 4370 	and.w	r3, r3, #4026531840	; 0xf0000000
 80023f4:	ea43 0207 	orr.w	r2, r3, r7
 80023f8:	f3c2 2307 	ubfx	r3, r2, #8, #8
 80023fc:	5532      	strb	r2, [r6, r4]
 80023fe:	704b      	strb	r3, [r1, #1]
 8002400:	0c13      	lsrs	r3, r2, #16
 8002402:	0e12      	lsrs	r2, r2, #24
 8002404:	708b      	strb	r3, [r1, #2]
 8002406:	70ca      	strb	r2, [r1, #3]
 8002408:	e7bd      	b.n	8002386 <put_fat+0x90>
 800240a:	2002      	movs	r0, #2
 800240c:	e7bd      	b.n	800238a <put_fat+0x94>

0800240e <create_chain>:
 800240e:	e92d 41f0 	stmdb	sp!, {r4, r5, r6, r7, r8, lr}
 8002412:	4606      	mov	r6, r0
 8002414:	4688      	mov	r8, r1
 8002416:	b991      	cbnz	r1, 800243e <create_chain+0x30>
 8002418:	f500 5380 	add.w	r3, r0, #4096	; 0x1000
 800241c:	68dd      	ldr	r5, [r3, #12]
 800241e:	b305      	cbz	r5, 8002462 <create_chain+0x54>
 8002420:	695b      	ldr	r3, [r3, #20]
 8002422:	429d      	cmp	r5, r3
 8002424:	bf28      	it	cs
 8002426:	2501      	movcs	r5, #1
 8002428:	462c      	mov	r4, r5
 800242a:	f506 5780 	add.w	r7, r6, #4096	; 0x1000
 800242e:	697b      	ldr	r3, [r7, #20]
 8002430:	3401      	adds	r4, #1
 8002432:	42a3      	cmp	r3, r4
 8002434:	d818      	bhi.n	8002468 <create_chain+0x5a>
 8002436:	2d01      	cmp	r5, #1
 8002438:	d815      	bhi.n	8002466 <create_chain+0x58>
 800243a:	2400      	movs	r4, #0
 800243c:	e005      	b.n	800244a <create_chain+0x3c>
 800243e:	f7ff fe9a 	bl	8002176 <get_fat>
 8002442:	2801      	cmp	r0, #1
 8002444:	4604      	mov	r4, r0
 8002446:	d803      	bhi.n	8002450 <create_chain+0x42>
 8002448:	2401      	movs	r4, #1
 800244a:	4620      	mov	r0, r4
 800244c:	e8bd 81f0 	ldmia.w	sp!, {r4, r5, r6, r7, r8, pc}
 8002450:	1c60      	adds	r0, r4, #1
 8002452:	d033      	beq.n	80024bc <create_chain+0xae>
 8002454:	f506 5380 	add.w	r3, r6, #4096	; 0x1000
 8002458:	695b      	ldr	r3, [r3, #20]
 800245a:	42a3      	cmp	r3, r4
 800245c:	d8f5      	bhi.n	800244a <create_chain+0x3c>
 800245e:	4645      	mov	r5, r8
 8002460:	e7e2      	b.n	8002428 <create_chain+0x1a>
 8002462:	2501      	movs	r5, #1
 8002464:	e7e0      	b.n	8002428 <create_chain+0x1a>
 8002466:	2402      	movs	r4, #2
 8002468:	4621      	mov	r1, r4
 800246a:	4630      	mov	r0, r6
 800246c:	f7ff fe83 	bl	8002176 <get_fat>
 8002470:	b130      	cbz	r0, 8002480 <create_chain+0x72>
 8002472:	1c41      	adds	r1, r0, #1
 8002474:	d022      	beq.n	80024bc <create_chain+0xae>
 8002476:	2801      	cmp	r0, #1
 8002478:	d0e6      	beq.n	8002448 <create_chain+0x3a>
 800247a:	42ac      	cmp	r4, r5
 800247c:	d1d7      	bne.n	800242e <create_chain+0x20>
 800247e:	e7dc      	b.n	800243a <create_chain+0x2c>
 8002480:	f06f 4270 	mvn.w	r2, #4026531840	; 0xf0000000
 8002484:	4621      	mov	r1, r4
 8002486:	4630      	mov	r0, r6
 8002488:	f7ff ff35 	bl	80022f6 <put_fat>
 800248c:	b9a0      	cbnz	r0, 80024b8 <create_chain+0xaa>
 800248e:	f1b8 0f00 	cmp.w	r8, #0
 8002492:	d10a      	bne.n	80024aa <create_chain+0x9c>
 8002494:	693b      	ldr	r3, [r7, #16]
 8002496:	60fc      	str	r4, [r7, #12]
 8002498:	1c5a      	adds	r2, r3, #1
 800249a:	d0d6      	beq.n	800244a <create_chain+0x3c>
 800249c:	3b01      	subs	r3, #1
 800249e:	613b      	str	r3, [r7, #16]
 80024a0:	797b      	ldrb	r3, [r7, #5]
 80024a2:	f043 0301 	orr.w	r3, r3, #1
 80024a6:	717b      	strb	r3, [r7, #5]
 80024a8:	e7cf      	b.n	800244a <create_chain+0x3c>
 80024aa:	4622      	mov	r2, r4
 80024ac:	4641      	mov	r1, r8
 80024ae:	4630      	mov	r0, r6
 80024b0:	f7ff ff21 	bl	80022f6 <put_fat>
 80024b4:	2800      	cmp	r0, #0
 80024b6:	d0ed      	beq.n	8002494 <create_chain+0x86>
 80024b8:	2801      	cmp	r0, #1
 80024ba:	d1c5      	bne.n	8002448 <create_chain+0x3a>
 80024bc:	f04f 34ff 	mov.w	r4, #4294967295
 80024c0:	e7c3      	b.n	800244a <create_chain+0x3c>

080024c2 <dir_next>:
 80024c2:	e92d 41f0 	stmdb	sp!, {r4, r5, r6, r7, r8, lr}
 80024c6:	f500 5480 	add.w	r4, r0, #4096	; 0x1000
 80024ca:	88e6      	ldrh	r6, [r4, #6]
 80024cc:	4688      	mov	r8, r1
 80024ce:	3601      	adds	r6, #1
 80024d0:	b2b3      	uxth	r3, r6
 80024d2:	b913      	cbnz	r3, 80024da <dir_next+0x18>
 80024d4:	2004      	movs	r0, #4
 80024d6:	e8bd 81f0 	ldmia.w	sp!, {r4, r5, r6, r7, r8, pc}
 80024da:	6922      	ldr	r2, [r4, #16]
 80024dc:	2a00      	cmp	r2, #0
 80024de:	d0f9      	beq.n	80024d4 <dir_next+0x12>
 80024e0:	6820      	ldr	r0, [r4, #0]
 80024e2:	f500 5780 	add.w	r7, r0, #4096	; 0x1000
 80024e6:	897b      	ldrh	r3, [r7, #10]
 80024e8:	095b      	lsrs	r3, r3, #5
 80024ea:	fbb6 f5f3 	udiv	r5, r6, r3
 80024ee:	fb03 6315 	mls	r3, r3, r5, r6
 80024f2:	b933      	cbnz	r3, 8002502 <dir_next+0x40>
 80024f4:	68e1      	ldr	r1, [r4, #12]
 80024f6:	3201      	adds	r2, #1
 80024f8:	6122      	str	r2, [r4, #16]
 80024fa:	b989      	cbnz	r1, 8002520 <dir_next+0x5e>
 80024fc:	893b      	ldrh	r3, [r7, #8]
 80024fe:	42b3      	cmp	r3, r6
 8002500:	d9e8      	bls.n	80024d4 <dir_next+0x12>
 8002502:	6823      	ldr	r3, [r4, #0]
 8002504:	80e6      	strh	r6, [r4, #6]
 8002506:	f503 5280 	add.w	r2, r3, #4096	; 0x1000
 800250a:	8952      	ldrh	r2, [r2, #10]
 800250c:	2000      	movs	r0, #0
 800250e:	0952      	lsrs	r2, r2, #5
 8002510:	fbb6 f1f2 	udiv	r1, r6, r2
 8002514:	fb02 6611 	mls	r6, r2, r1, r6
 8002518:	eb03 1646 	add.w	r6, r3, r6, lsl #5
 800251c:	6166      	str	r6, [r4, #20]
 800251e:	e7da      	b.n	80024d6 <dir_next+0x14>
 8002520:	78bf      	ldrb	r7, [r7, #2]
 8002522:	3f01      	subs	r7, #1
 8002524:	402f      	ands	r7, r5
 8002526:	d1ec      	bne.n	8002502 <dir_next+0x40>
 8002528:	f7ff fe25 	bl	8002176 <get_fat>
 800252c:	2801      	cmp	r0, #1
 800252e:	4605      	mov	r5, r0
 8002530:	d801      	bhi.n	8002536 <dir_next+0x74>
 8002532:	2002      	movs	r0, #2
 8002534:	e7cf      	b.n	80024d6 <dir_next+0x14>
 8002536:	1c42      	adds	r2, r0, #1
 8002538:	d101      	bne.n	800253e <dir_next+0x7c>
 800253a:	2001      	movs	r0, #1
 800253c:	e7cb      	b.n	80024d6 <dir_next+0x14>
 800253e:	6820      	ldr	r0, [r4, #0]
 8002540:	f500 5380 	add.w	r3, r0, #4096	; 0x1000
 8002544:	695b      	ldr	r3, [r3, #20]
 8002546:	42ab      	cmp	r3, r5
 8002548:	d82b      	bhi.n	80025a2 <dir_next+0xe0>
 800254a:	f1b8 0f00 	cmp.w	r8, #0
 800254e:	d0c1      	beq.n	80024d4 <dir_next+0x12>
 8002550:	68e1      	ldr	r1, [r4, #12]
 8002552:	f7ff ff5c 	bl	800240e <create_chain>
 8002556:	4605      	mov	r5, r0
 8002558:	2800      	cmp	r0, #0
 800255a:	d037      	beq.n	80025cc <dir_next+0x10a>
 800255c:	2801      	cmp	r0, #1
 800255e:	d0e8      	beq.n	8002532 <dir_next+0x70>
 8002560:	1c43      	adds	r3, r0, #1
 8002562:	d0ea      	beq.n	800253a <dir_next+0x78>
 8002564:	6820      	ldr	r0, [r4, #0]
 8002566:	f7ff fc3e 	bl	8001de6 <sync_window>
 800256a:	4601      	mov	r1, r0
 800256c:	2800      	cmp	r0, #0
 800256e:	d1e4      	bne.n	800253a <dir_next+0x78>
 8002570:	6820      	ldr	r0, [r4, #0]
 8002572:	f04f 0801 	mov.w	r8, #1
 8002576:	f500 5380 	add.w	r3, r0, #4096	; 0x1000
 800257a:	895a      	ldrh	r2, [r3, #10]
 800257c:	f7ff fafa 	bl	8001b74 <mem_set>
 8002580:	6822      	ldr	r2, [r4, #0]
 8002582:	4629      	mov	r1, r5
 8002584:	4610      	mov	r0, r2
 8002586:	f7ff fde9 	bl	800215c <clust2sect>
 800258a:	f502 5280 	add.w	r2, r2, #4096	; 0x1000
 800258e:	62d0      	str	r0, [r2, #44]	; 0x2c
 8002590:	6820      	ldr	r0, [r4, #0]
 8002592:	f500 5380 	add.w	r3, r0, #4096	; 0x1000
 8002596:	789a      	ldrb	r2, [r3, #2]
 8002598:	42ba      	cmp	r2, r7
 800259a:	d809      	bhi.n	80025b0 <dir_next+0xee>
 800259c:	6ada      	ldr	r2, [r3, #44]	; 0x2c
 800259e:	1bd2      	subs	r2, r2, r7
 80025a0:	62da      	str	r2, [r3, #44]	; 0x2c
 80025a2:	4629      	mov	r1, r5
 80025a4:	6820      	ldr	r0, [r4, #0]
 80025a6:	60e5      	str	r5, [r4, #12]
 80025a8:	f7ff fdd8 	bl	800215c <clust2sect>
 80025ac:	6120      	str	r0, [r4, #16]
 80025ae:	e7a8      	b.n	8002502 <dir_next+0x40>
 80025b0:	f883 8004 	strb.w	r8, [r3, #4]
 80025b4:	f7ff fbee 	bl	8001d94 <sync_window.part.0>
 80025b8:	2800      	cmp	r0, #0
 80025ba:	d1be      	bne.n	800253a <dir_next+0x78>
 80025bc:	6823      	ldr	r3, [r4, #0]
 80025be:	3701      	adds	r7, #1
 80025c0:	f503 5380 	add.w	r3, r3, #4096	; 0x1000
 80025c4:	6ada      	ldr	r2, [r3, #44]	; 0x2c
 80025c6:	3201      	adds	r2, #1
 80025c8:	62da      	str	r2, [r3, #44]	; 0x2c
 80025ca:	e7e1      	b.n	8002590 <dir_next+0xce>
 80025cc:	2007      	movs	r0, #7
 80025ce:	e782      	b.n	80024d6 <dir_next+0x14>

080025d0 <dir_find>:
 80025d0:	e92d 4ff0 	stmdb	sp!, {r4, r5, r6, r7, r8, r9, sl, fp, lr}
 80025d4:	2100      	movs	r1, #0
 80025d6:	b085      	sub	sp, #20
 80025d8:	4680      	mov	r8, r0
 80025da:	f7ff fe42 	bl	8002262 <dir_sdi>
 80025de:	4606      	mov	r6, r0
 80025e0:	2800      	cmp	r0, #0
 80025e2:	d167      	bne.n	80026b4 <dir_find+0xe4>
 80025e4:	f04f 09ff 	mov.w	r9, #255	; 0xff
 80025e8:	f64f 7aff 	movw	sl, #65535	; 0xffff
 80025ec:	464c      	mov	r4, r9
 80025ee:	f508 5780 	add.w	r7, r8, #4096	; 0x1000
 80025f2:	f8a7 a024 	strh.w	sl, [r7, #36]	; 0x24
 80025f6:	6939      	ldr	r1, [r7, #16]
 80025f8:	6838      	ldr	r0, [r7, #0]
 80025fa:	f7ff fbfc 	bl	8001df6 <move_window>
 80025fe:	4606      	mov	r6, r0
 8002600:	2800      	cmp	r0, #0
 8002602:	d157      	bne.n	80026b4 <dir_find+0xe4>
 8002604:	697d      	ldr	r5, [r7, #20]
 8002606:	782a      	ldrb	r2, [r5, #0]
 8002608:	2a00      	cmp	r2, #0
 800260a:	d074      	beq.n	80026f6 <dir_find+0x126>
 800260c:	2ae5      	cmp	r2, #229	; 0xe5
 800260e:	d006      	beq.n	800261e <dir_find+0x4e>
 8002610:	7ae9      	ldrb	r1, [r5, #11]
 8002612:	0708      	lsls	r0, r1, #28
 8002614:	f001 033f 	and.w	r3, r1, #63	; 0x3f
 8002618:	d504      	bpl.n	8002624 <dir_find+0x54>
 800261a:	2b0f      	cmp	r3, #15
 800261c:	d004      	beq.n	8002628 <dir_find+0x58>
 800261e:	f8a7 a024 	strh.w	sl, [r7, #36]	; 0x24
 8002622:	e04d      	b.n	80026c0 <dir_find+0xf0>
 8002624:	2b0f      	cmp	r3, #15
 8002626:	d150      	bne.n	80026ca <dir_find+0xfa>
 8002628:	6a3b      	ldr	r3, [r7, #32]
 800262a:	9301      	str	r3, [sp, #4]
 800262c:	2b00      	cmp	r3, #0
 800262e:	d03a      	beq.n	80026a6 <dir_find+0xd6>
 8002630:	0651      	lsls	r1, r2, #25
 8002632:	d543      	bpl.n	80026bc <dir_find+0xec>
 8002634:	f002 04bf 	and.w	r4, r2, #191	; 0xbf
 8002638:	88fa      	ldrh	r2, [r7, #6]
 800263a:	f895 900d 	ldrb.w	r9, [r5, #13]
 800263e:	84ba      	strh	r2, [r7, #36]	; 0x24
 8002640:	7b6a      	ldrb	r2, [r5, #13]
 8002642:	454a      	cmp	r2, r9
 8002644:	d13c      	bne.n	80026c0 <dir_find+0xf0>
 8002646:	220d      	movs	r2, #13
 8002648:	2301      	movs	r3, #1
 800264a:	782e      	ldrb	r6, [r5, #0]
 800264c:	f8df b0ac 	ldr.w	fp, [pc, #172]	; 80026fc <dir_find+0x12c>
 8002650:	f026 0640 	bic.w	r6, r6, #64	; 0x40
 8002654:	3e01      	subs	r6, #1
 8002656:	4356      	muls	r6, r2
 8002658:	f81b 2b01 	ldrb.w	r2, [fp], #1
 800265c:	18a9      	adds	r1, r5, r2
 800265e:	7848      	ldrb	r0, [r1, #1]
 8002660:	5caa      	ldrb	r2, [r5, r2]
 8002662:	ea42 2000 	orr.w	r0, r2, r0, lsl #8
 8002666:	b36b      	cbz	r3, 80026c4 <dir_find+0xf4>
 8002668:	f000 fd78 	bl	800315c <ff_wtoupper>
 800266c:	2efe      	cmp	r6, #254	; 0xfe
 800266e:	9003      	str	r0, [sp, #12]
 8002670:	d826      	bhi.n	80026c0 <dir_find+0xf0>
 8002672:	9b01      	ldr	r3, [sp, #4]
 8002674:	1c71      	adds	r1, r6, #1
 8002676:	f833 0016 	ldrh.w	r0, [r3, r6, lsl #1]
 800267a:	9102      	str	r1, [sp, #8]
 800267c:	f000 fd6e 	bl	800315c <ff_wtoupper>
 8002680:	9a03      	ldr	r2, [sp, #12]
 8002682:	4603      	mov	r3, r0
 8002684:	4282      	cmp	r2, r0
 8002686:	d11b      	bne.n	80026c0 <dir_find+0xf0>
 8002688:	9902      	ldr	r1, [sp, #8]
 800268a:	460e      	mov	r6, r1
 800268c:	4a1c      	ldr	r2, [pc, #112]	; (8002700 <dir_find+0x130>)
 800268e:	455a      	cmp	r2, fp
 8002690:	d1e2      	bne.n	8002658 <dir_find+0x88>
 8002692:	782a      	ldrb	r2, [r5, #0]
 8002694:	0652      	lsls	r2, r2, #25
 8002696:	d504      	bpl.n	80026a2 <dir_find+0xd2>
 8002698:	b11b      	cbz	r3, 80026a2 <dir_find+0xd2>
 800269a:	9b01      	ldr	r3, [sp, #4]
 800269c:	f833 3016 	ldrh.w	r3, [r3, r6, lsl #1]
 80026a0:	b973      	cbnz	r3, 80026c0 <dir_find+0xf0>
 80026a2:	3c01      	subs	r4, #1
 80026a4:	b2e4      	uxtb	r4, r4
 80026a6:	2100      	movs	r1, #0
 80026a8:	4640      	mov	r0, r8
 80026aa:	f7ff ff0a 	bl	80024c2 <dir_next>
 80026ae:	4606      	mov	r6, r0
 80026b0:	2800      	cmp	r0, #0
 80026b2:	d0a0      	beq.n	80025f6 <dir_find+0x26>
 80026b4:	4630      	mov	r0, r6
 80026b6:	b005      	add	sp, #20
 80026b8:	e8bd 8ff0 	ldmia.w	sp!, {r4, r5, r6, r7, r8, r9, sl, fp, pc}
 80026bc:	42a2      	cmp	r2, r4
 80026be:	d0bf      	beq.n	8002640 <dir_find+0x70>
 80026c0:	24ff      	movs	r4, #255	; 0xff
 80026c2:	e7f0      	b.n	80026a6 <dir_find+0xd6>
 80026c4:	4550      	cmp	r0, sl
 80026c6:	d0e1      	beq.n	800268c <dir_find+0xbc>
 80026c8:	e7fa      	b.n	80026c0 <dir_find+0xf0>
 80026ca:	b924      	cbnz	r4, 80026d6 <dir_find+0x106>
 80026cc:	4628      	mov	r0, r5
 80026ce:	f7ff fb24 	bl	8001d1a <sum_sfn>
 80026d2:	4548      	cmp	r0, r9
 80026d4:	d0ee      	beq.n	80026b4 <dir_find+0xe4>
 80026d6:	69bb      	ldr	r3, [r7, #24]
 80026d8:	7ade      	ldrb	r6, [r3, #11]
 80026da:	f016 0601 	ands.w	r6, r6, #1
 80026de:	d19e      	bne.n	800261e <dir_find+0x4e>
 80026e0:	f105 000b 	add.w	r0, r5, #11
 80026e4:	4285      	cmp	r5, r0
 80026e6:	d0e5      	beq.n	80026b4 <dir_find+0xe4>
 80026e8:	f815 1b01 	ldrb.w	r1, [r5], #1
 80026ec:	f813 2b01 	ldrb.w	r2, [r3], #1
 80026f0:	4291      	cmp	r1, r2
 80026f2:	d0f7      	beq.n	80026e4 <dir_find+0x114>
 80026f4:	e793      	b.n	800261e <dir_find+0x4e>
 80026f6:	2604      	movs	r6, #4
 80026f8:	e7dc      	b.n	80026b4 <dir_find+0xe4>
 80026fa:	bf00      	nop
 80026fc:	08003395 	.word	0x08003395
 8002700:	080033a2 	.word	0x080033a2

08002704 <follow_path>:
 8002704:	e92d 4ff7 	stmdb	sp!, {r0, r1, r2, r4, r5, r6, r7, r8, r9, sl, fp, lr}
 8002708:	780b      	ldrb	r3, [r1, #0]
 800270a:	4682      	mov	sl, r0
 800270c:	2b2f      	cmp	r3, #47	; 0x2f
 800270e:	460f      	mov	r7, r1
 8002710:	d001      	beq.n	8002716 <follow_path+0x12>
 8002712:	2b5c      	cmp	r3, #92	; 0x5c
 8002714:	d100      	bne.n	8002718 <follow_path+0x14>
 8002716:	3701      	adds	r7, #1
 8002718:	2400      	movs	r4, #0
 800271a:	f50a 5880 	add.w	r8, sl, #4096	; 0x1000
 800271e:	f8c8 4008 	str.w	r4, [r8, #8]
 8002722:	783b      	ldrb	r3, [r7, #0]
 8002724:	2b1f      	cmp	r3, #31
 8002726:	f200 80c3 	bhi.w	80028b0 <follow_path+0x1ac>
 800272a:	4621      	mov	r1, r4
 800272c:	4650      	mov	r0, sl
 800272e:	f7ff fd98 	bl	8002262 <dir_sdi>
 8002732:	f8c8 4014 	str.w	r4, [r8, #20]
 8002736:	b003      	add	sp, #12
 8002738:	e8bd 8ff0 	ldmia.w	sp!, {r4, r5, r6, r7, r8, r9, sl, fp, pc}
 800273c:	463e      	mov	r6, r7
 800273e:	f829 0f02 	strh.w	r0, [r9, #2]!
 8002742:	e0c4      	b.n	80028ce <follow_path+0x1ca>
 8002744:	2820      	cmp	r0, #32
 8002746:	4427      	add	r7, r4
 8002748:	bf34      	ite	cc
 800274a:	2404      	movcc	r4, #4
 800274c:	2400      	movcs	r4, #0
 800274e:	2e00      	cmp	r6, #0
 8002750:	f000 80de 	beq.w	8002910 <follow_path+0x20c>
 8002754:	f835 3016 	ldrh.w	r3, [r5, r6, lsl #1]
 8002758:	2b20      	cmp	r3, #32
 800275a:	d002      	beq.n	8002762 <follow_path+0x5e>
 800275c:	2b2e      	cmp	r3, #46	; 0x2e
 800275e:	f040 80db 	bne.w	8002918 <follow_path+0x214>
 8002762:	3e01      	subs	r6, #1
 8002764:	e7f3      	b.n	800274e <follow_path+0x4a>
 8002766:	3101      	adds	r1, #1
 8002768:	f83b 3011 	ldrh.w	r3, [fp, r1, lsl #1]
 800276c:	2b20      	cmp	r3, #32
 800276e:	d0fa      	beq.n	8002766 <follow_path+0x62>
 8002770:	2b2e      	cmp	r3, #46	; 0x2e
 8002772:	d0f8      	beq.n	8002766 <follow_path+0x62>
 8002774:	b109      	cbz	r1, 800277a <follow_path+0x76>
 8002776:	f044 0403 	orr.w	r4, r4, #3
 800277a:	f835 3016 	ldrh.w	r3, [r5, r6, lsl #1]
 800277e:	2b2e      	cmp	r3, #46	; 0x2e
 8002780:	d001      	beq.n	8002786 <follow_path+0x82>
 8002782:	3e01      	subs	r6, #1
 8002784:	d1f9      	bne.n	800277a <follow_path+0x76>
 8002786:	2300      	movs	r3, #0
 8002788:	f04f 0908 	mov.w	r9, #8
 800278c:	461d      	mov	r5, r3
 800278e:	f83b 0011 	ldrh.w	r0, [fp, r1, lsl #1]
 8002792:	1c4a      	adds	r2, r1, #1
 8002794:	b1c0      	cbz	r0, 80027c8 <follow_path+0xc4>
 8002796:	2820      	cmp	r0, #32
 8002798:	d003      	beq.n	80027a2 <follow_path+0x9e>
 800279a:	282e      	cmp	r0, #46	; 0x2e
 800279c:	d105      	bne.n	80027aa <follow_path+0xa6>
 800279e:	4296      	cmp	r6, r2
 80027a0:	d007      	beq.n	80027b2 <follow_path+0xae>
 80027a2:	f044 0403 	orr.w	r4, r4, #3
 80027a6:	4611      	mov	r1, r2
 80027a8:	e7f1      	b.n	800278e <follow_path+0x8a>
 80027aa:	454b      	cmp	r3, r9
 80027ac:	d205      	bcs.n	80027ba <follow_path+0xb6>
 80027ae:	4296      	cmp	r6, r2
 80027b0:	d149      	bne.n	8002846 <follow_path+0x142>
 80027b2:	f1b9 0f0b 	cmp.w	r9, #11
 80027b6:	d13f      	bne.n	8002838 <follow_path+0x134>
 80027b8:	e002      	b.n	80027c0 <follow_path+0xbc>
 80027ba:	f1b9 0f0b 	cmp.w	r9, #11
 80027be:	d136      	bne.n	800282e <follow_path+0x12a>
 80027c0:	f04f 090b 	mov.w	r9, #11
 80027c4:	f044 0403 	orr.w	r4, r4, #3
 80027c8:	f8d8 3018 	ldr.w	r3, [r8, #24]
 80027cc:	781a      	ldrb	r2, [r3, #0]
 80027ce:	2ae5      	cmp	r2, #229	; 0xe5
 80027d0:	bf04      	itt	eq
 80027d2:	2205      	moveq	r2, #5
 80027d4:	701a      	strbeq	r2, [r3, #0]
 80027d6:	f1b9 0f08 	cmp.w	r9, #8
 80027da:	bf04      	itt	eq
 80027dc:	00ad      	lsleq	r5, r5, #2
 80027de:	b2ed      	uxtbeq	r5, r5
 80027e0:	f005 030c 	and.w	r3, r5, #12
 80027e4:	2b0c      	cmp	r3, #12
 80027e6:	d003      	beq.n	80027f0 <follow_path+0xec>
 80027e8:	f005 0203 	and.w	r2, r5, #3
 80027ec:	2a03      	cmp	r2, #3
 80027ee:	d101      	bne.n	80027f4 <follow_path+0xf0>
 80027f0:	f044 0402 	orr.w	r4, r4, #2
 80027f4:	07a1      	lsls	r1, r4, #30
 80027f6:	d409      	bmi.n	800280c <follow_path+0x108>
 80027f8:	f005 0503 	and.w	r5, r5, #3
 80027fc:	2d01      	cmp	r5, #1
 80027fe:	bf08      	it	eq
 8002800:	f044 0410 	orreq.w	r4, r4, #16
 8002804:	2b04      	cmp	r3, #4
 8002806:	bf08      	it	eq
 8002808:	f044 0408 	orreq.w	r4, r4, #8
 800280c:	f8d8 3018 	ldr.w	r3, [r8, #24]
 8002810:	4650      	mov	r0, sl
 8002812:	72dc      	strb	r4, [r3, #11]
 8002814:	f7ff fedc 	bl	80025d0 <dir_find>
 8002818:	f8d8 3018 	ldr.w	r3, [r8, #24]
 800281c:	7adb      	ldrb	r3, [r3, #11]
 800281e:	b3b0      	cbz	r0, 800288e <follow_path+0x18a>
 8002820:	2804      	cmp	r0, #4
 8002822:	d188      	bne.n	8002736 <follow_path+0x32>
 8002824:	f013 0f04 	tst.w	r3, #4
 8002828:	bf08      	it	eq
 800282a:	2005      	moveq	r0, #5
 800282c:	e783      	b.n	8002736 <follow_path+0x32>
 800282e:	4296      	cmp	r6, r2
 8002830:	d002      	beq.n	8002838 <follow_path+0x134>
 8002832:	f044 0403 	orr.w	r4, r4, #3
 8002836:	d3c7      	bcc.n	80027c8 <follow_path+0xc4>
 8002838:	00ad      	lsls	r5, r5, #2
 800283a:	4632      	mov	r2, r6
 800283c:	f04f 090b 	mov.w	r9, #11
 8002840:	2308      	movs	r3, #8
 8002842:	b2ed      	uxtb	r5, r5
 8002844:	e7af      	b.n	80027a6 <follow_path+0xa2>
 8002846:	287f      	cmp	r0, #127	; 0x7f
 8002848:	d90e      	bls.n	8002868 <follow_path+0x164>
 800284a:	2100      	movs	r1, #0
 800284c:	e9cd 2300 	strd	r2, r3, [sp]
 8002850:	f000 fc66 	bl	8003120 <ff_convert>
 8002854:	e9dd 2300 	ldrd	r2, r3, [sp]
 8002858:	f044 0402 	orr.w	r4, r4, #2
 800285c:	b160      	cbz	r0, 8002878 <follow_path+0x174>
 800285e:	493a      	ldr	r1, [pc, #232]	; (8002948 <follow_path+0x244>)
 8002860:	4408      	add	r0, r1
 8002862:	f810 0c80 	ldrb.w	r0, [r0, #-128]
 8002866:	b138      	cbz	r0, 8002878 <follow_path+0x174>
 8002868:	f8df c0e0 	ldr.w	ip, [pc, #224]	; 800294c <follow_path+0x248>
 800286c:	f81c 1b01 	ldrb.w	r1, [ip], #1
 8002870:	2900      	cmp	r1, #0
 8002872:	d05c      	beq.n	800292e <follow_path+0x22a>
 8002874:	4281      	cmp	r1, r0
 8002876:	d1f9      	bne.n	800286c <follow_path+0x168>
 8002878:	205f      	movs	r0, #95	; 0x5f
 800287a:	f044 0403 	orr.w	r4, r4, #3
 800287e:	f8d8 1018 	ldr.w	r1, [r8, #24]
 8002882:	54c8      	strb	r0, [r1, r3]
 8002884:	3301      	adds	r3, #1
 8002886:	e78e      	b.n	80027a6 <follow_path+0xa2>
 8002888:	f045 0502 	orr.w	r5, r5, #2
 800288c:	e7f7      	b.n	800287e <follow_path+0x17a>
 800288e:	075a      	lsls	r2, r3, #29
 8002890:	f53f af51 	bmi.w	8002736 <follow_path+0x32>
 8002894:	f8d8 1014 	ldr.w	r1, [r8, #20]
 8002898:	7acb      	ldrb	r3, [r1, #11]
 800289a:	06db      	lsls	r3, r3, #27
 800289c:	d53a      	bpl.n	8002914 <follow_path+0x210>
 800289e:	f8d8 3000 	ldr.w	r3, [r8]
 80028a2:	f503 5380 	add.w	r3, r3, #4096	; 0x1000
 80028a6:	7818      	ldrb	r0, [r3, #0]
 80028a8:	f7ff fc50 	bl	800214c <ld_clust.isra.0>
 80028ac:	f8c8 0008 	str.w	r0, [r8, #8]
 80028b0:	783b      	ldrb	r3, [r7, #0]
 80028b2:	463c      	mov	r4, r7
 80028b4:	2b2f      	cmp	r3, #47	; 0x2f
 80028b6:	f107 0701 	add.w	r7, r7, #1
 80028ba:	d0f9      	beq.n	80028b0 <follow_path+0x1ac>
 80028bc:	2b5c      	cmp	r3, #92	; 0x5c
 80028be:	d0f7      	beq.n	80028b0 <follow_path+0x1ac>
 80028c0:	f8d8 b020 	ldr.w	fp, [r8, #32]
 80028c4:	2600      	movs	r6, #0
 80028c6:	f1ab 0502 	sub.w	r5, fp, #2
 80028ca:	46a9      	mov	r9, r5
 80028cc:	1e63      	subs	r3, r4, #1
 80028ce:	f813 0f01 	ldrb.w	r0, [r3, #1]!
 80028d2:	1c77      	adds	r7, r6, #1
 80028d4:	281f      	cmp	r0, #31
 80028d6:	e9cd 3300 	strd	r3, r3, [sp]
 80028da:	f67f af33 	bls.w	8002744 <follow_path+0x40>
 80028de:	282f      	cmp	r0, #47	; 0x2f
 80028e0:	f43f af30 	beq.w	8002744 <follow_path+0x40>
 80028e4:	285c      	cmp	r0, #92	; 0x5c
 80028e6:	f43f af2d 	beq.w	8002744 <follow_path+0x40>
 80028ea:	f5b7 7f80 	cmp.w	r7, #256	; 0x100
 80028ee:	d00f      	beq.n	8002910 <follow_path+0x20c>
 80028f0:	2101      	movs	r1, #1
 80028f2:	f000 fc15 	bl	8003120 <ff_convert>
 80028f6:	b158      	cbz	r0, 8002910 <follow_path+0x20c>
 80028f8:	287f      	cmp	r0, #127	; 0x7f
 80028fa:	9b00      	ldr	r3, [sp, #0]
 80028fc:	f63f af1e 	bhi.w	800273c <follow_path+0x38>
 8002900:	4913      	ldr	r1, [pc, #76]	; (8002950 <follow_path+0x24c>)
 8002902:	f811 2b01 	ldrb.w	r2, [r1], #1
 8002906:	2a00      	cmp	r2, #0
 8002908:	f43f af18 	beq.w	800273c <follow_path+0x38>
 800290c:	4282      	cmp	r2, r0
 800290e:	d1f8      	bne.n	8002902 <follow_path+0x1fe>
 8002910:	2006      	movs	r0, #6
 8002912:	e710      	b.n	8002736 <follow_path+0x32>
 8002914:	2005      	movs	r0, #5
 8002916:	e70e      	b.n	8002736 <follow_path+0x32>
 8002918:	2300      	movs	r3, #0
 800291a:	2120      	movs	r1, #32
 800291c:	220b      	movs	r2, #11
 800291e:	f8d8 0018 	ldr.w	r0, [r8, #24]
 8002922:	f82b 3016 	strh.w	r3, [fp, r6, lsl #1]
 8002926:	f7ff f925 	bl	8001b74 <mem_set>
 800292a:	4619      	mov	r1, r3
 800292c:	e71c      	b.n	8002768 <follow_path+0x64>
 800292e:	f1a0 0141 	sub.w	r1, r0, #65	; 0x41
 8002932:	2919      	cmp	r1, #25
 8002934:	d9a8      	bls.n	8002888 <follow_path+0x184>
 8002936:	f1a0 0161 	sub.w	r1, r0, #97	; 0x61
 800293a:	2919      	cmp	r1, #25
 800293c:	bf9e      	ittt	ls
 800293e:	3820      	subls	r0, #32
 8002940:	f045 0501 	orrls.w	r5, r5, #1
 8002944:	b280      	uxthls	r0, r0
 8002946:	e79a      	b.n	800287e <follow_path+0x17a>
 8002948:	08003315 	.word	0x08003315
 800294c:	0800330e 	.word	0x0800330e
 8002950:	08003305 	.word	0x08003305

08002954 <dir_register>:
 8002954:	e92d 4ff0 	stmdb	sp!, {r4, r5, r6, r7, r8, r9, sl, fp, lr}
 8002958:	f500 5480 	add.w	r4, r0, #4096	; 0x1000
 800295c:	69a5      	ldr	r5, [r4, #24]
 800295e:	b089      	sub	sp, #36	; 0x24
 8002960:	4606      	mov	r6, r0
 8002962:	220c      	movs	r2, #12
 8002964:	4629      	mov	r1, r5
 8002966:	a805      	add	r0, sp, #20
 8002968:	f8d4 8020 	ldr.w	r8, [r4, #32]
 800296c:	f7ff f8f8 	bl	8001b60 <mem_cpy>
 8002970:	f89d 301f 	ldrb.w	r3, [sp, #31]
 8002974:	07db      	lsls	r3, r3, #31
 8002976:	f140 8087 	bpl.w	8002a88 <dir_register+0x134>
 800297a:	2300      	movs	r3, #0
 800297c:	f04f 0a01 	mov.w	sl, #1
 8002980:	f8df 922c 	ldr.w	r9, [pc, #556]	; 8002bb0 <dir_register+0x25c>
 8002984:	72eb      	strb	r3, [r5, #11]
 8002986:	6223      	str	r3, [r4, #32]
 8002988:	220b      	movs	r2, #11
 800298a:	4628      	mov	r0, r5
 800298c:	a905      	add	r1, sp, #20
 800298e:	f7ff f8e7 	bl	8001b60 <mem_cpy>
 8002992:	f1ba 0f05 	cmp.w	sl, #5
 8002996:	d954      	bls.n	8002a42 <dir_register+0xee>
 8002998:	4653      	mov	r3, sl
 800299a:	f1a8 0002 	sub.w	r0, r8, #2
 800299e:	f830 2f02 	ldrh.w	r2, [r0, #2]!
 80029a2:	2a00      	cmp	r2, #0
 80029a4:	d13f      	bne.n	8002a26 <dir_register+0xd2>
 80029a6:	2207      	movs	r2, #7
 80029a8:	f10d 0013 	add.w	r0, sp, #19
 80029ac:	f003 070f 	and.w	r7, r3, #15
 80029b0:	f107 0130 	add.w	r1, r7, #48	; 0x30
 80029b4:	2939      	cmp	r1, #57	; 0x39
 80029b6:	bf88      	it	hi
 80029b8:	f107 0137 	addhi.w	r1, r7, #55	; 0x37
 80029bc:	2b0f      	cmp	r3, #15
 80029be:	f800 1901 	strb.w	r1, [r0], #-1
 80029c2:	f102 32ff 	add.w	r2, r2, #4294967295
 80029c6:	ea4f 1113 	mov.w	r1, r3, lsr #4
 80029ca:	d83c      	bhi.n	8002a46 <dir_register+0xf2>
 80029cc:	217e      	movs	r1, #126	; 0x7e
 80029ce:	f102 0320 	add.w	r3, r2, #32
 80029d2:	446b      	add	r3, sp
 80029d4:	f803 1c14 	strb.w	r1, [r3, #-20]
 80029d8:	2300      	movs	r3, #0
 80029da:	1e6f      	subs	r7, r5, #1
 80029dc:	429a      	cmp	r2, r3
 80029de:	d003      	beq.n	80029e8 <dir_register+0x94>
 80029e0:	1c59      	adds	r1, r3, #1
 80029e2:	5c78      	ldrb	r0, [r7, r1]
 80029e4:	2820      	cmp	r0, #32
 80029e6:	d130      	bne.n	8002a4a <dir_register+0xf6>
 80029e8:	442b      	add	r3, r5
 80029ea:	2a07      	cmp	r2, #7
 80029ec:	bf8f      	iteee	hi
 80029ee:	2120      	movhi	r1, #32
 80029f0:	f102 0120 	addls.w	r1, r2, #32
 80029f4:	4469      	addls	r1, sp
 80029f6:	f811 1c14 	ldrbls.w	r1, [r1, #-20]
 80029fa:	bf98      	it	ls
 80029fc:	3201      	addls	r2, #1
 80029fe:	f803 1b01 	strb.w	r1, [r3], #1
 8002a02:	1b59      	subs	r1, r3, r5
 8002a04:	2907      	cmp	r1, #7
 8002a06:	d9f0      	bls.n	80029ea <dir_register+0x96>
 8002a08:	4630      	mov	r0, r6
 8002a0a:	f7ff fde1 	bl	80025d0 <dir_find>
 8002a0e:	4607      	mov	r7, r0
 8002a10:	bb98      	cbnz	r0, 8002a7a <dir_register+0x126>
 8002a12:	f10a 0a01 	add.w	sl, sl, #1
 8002a16:	f1ba 0f64 	cmp.w	sl, #100	; 0x64
 8002a1a:	d1b5      	bne.n	8002988 <dir_register+0x34>
 8002a1c:	2707      	movs	r7, #7
 8002a1e:	4638      	mov	r0, r7
 8002a20:	b009      	add	sp, #36	; 0x24
 8002a22:	e8bd 8ff0 	ldmia.w	sp!, {r4, r5, r6, r7, r8, r9, sl, fp, pc}
 8002a26:	2110      	movs	r1, #16
 8002a28:	f002 0701 	and.w	r7, r2, #1
 8002a2c:	eb07 0343 	add.w	r3, r7, r3, lsl #1
 8002a30:	03df      	lsls	r7, r3, #15
 8002a32:	bf48      	it	mi
 8002a34:	ea83 0309 	eormi.w	r3, r3, r9
 8002a38:	3901      	subs	r1, #1
 8002a3a:	ea4f 0252 	mov.w	r2, r2, lsr #1
 8002a3e:	d1f3      	bne.n	8002a28 <dir_register+0xd4>
 8002a40:	e7ad      	b.n	800299e <dir_register+0x4a>
 8002a42:	4653      	mov	r3, sl
 8002a44:	e7af      	b.n	80029a6 <dir_register+0x52>
 8002a46:	460b      	mov	r3, r1
 8002a48:	e7b0      	b.n	80029ac <dir_register+0x58>
 8002a4a:	460b      	mov	r3, r1
 8002a4c:	e7c6      	b.n	80029dc <dir_register+0x88>
 8002a4e:	3501      	adds	r5, #1
 8002a50:	f838 3015 	ldrh.w	r3, [r8, r5, lsl #1]
 8002a54:	2b00      	cmp	r3, #0
 8002a56:	d1fa      	bne.n	8002a4e <dir_register+0xfa>
 8002a58:	230d      	movs	r3, #13
 8002a5a:	3519      	adds	r5, #25
 8002a5c:	fbb5 f5f3 	udiv	r5, r5, r3
 8002a60:	e017      	b.n	8002a92 <dir_register+0x13e>
 8002a62:	2500      	movs	r5, #0
 8002a64:	e7f4      	b.n	8002a50 <dir_register+0xfc>
 8002a66:	4680      	mov	r8, r0
 8002a68:	2101      	movs	r1, #1
 8002a6a:	4630      	mov	r0, r6
 8002a6c:	f7ff fd29 	bl	80024c2 <dir_next>
 8002a70:	4607      	mov	r7, r0
 8002a72:	b1b0      	cbz	r0, 8002aa2 <dir_register+0x14e>
 8002a74:	2f04      	cmp	r7, #4
 8002a76:	d0d1      	beq.n	8002a1c <dir_register+0xc8>
 8002a78:	e7d1      	b.n	8002a1e <dir_register+0xca>
 8002a7a:	2804      	cmp	r0, #4
 8002a7c:	d1cf      	bne.n	8002a1e <dir_register+0xca>
 8002a7e:	f89d 301f 	ldrb.w	r3, [sp, #31]
 8002a82:	72eb      	strb	r3, [r5, #11]
 8002a84:	f8c4 8020 	str.w	r8, [r4, #32]
 8002a88:	f89d 301f 	ldrb.w	r3, [sp, #31]
 8002a8c:	079b      	lsls	r3, r3, #30
 8002a8e:	d4e8      	bmi.n	8002a62 <dir_register+0x10e>
 8002a90:	2501      	movs	r5, #1
 8002a92:	2100      	movs	r1, #0
 8002a94:	4630      	mov	r0, r6
 8002a96:	f7ff fbe4 	bl	8002262 <dir_sdi>
 8002a9a:	4607      	mov	r7, r0
 8002a9c:	2800      	cmp	r0, #0
 8002a9e:	d1e9      	bne.n	8002a74 <dir_register+0x120>
 8002aa0:	4680      	mov	r8, r0
 8002aa2:	6921      	ldr	r1, [r4, #16]
 8002aa4:	6820      	ldr	r0, [r4, #0]
 8002aa6:	f7ff f9a6 	bl	8001df6 <move_window>
 8002aaa:	4607      	mov	r7, r0
 8002aac:	2800      	cmp	r0, #0
 8002aae:	d1e1      	bne.n	8002a74 <dir_register+0x120>
 8002ab0:	6963      	ldr	r3, [r4, #20]
 8002ab2:	781b      	ldrb	r3, [r3, #0]
 8002ab4:	2be5      	cmp	r3, #229	; 0xe5
 8002ab6:	d001      	beq.n	8002abc <dir_register+0x168>
 8002ab8:	2b00      	cmp	r3, #0
 8002aba:	d1d4      	bne.n	8002a66 <dir_register+0x112>
 8002abc:	f108 0801 	add.w	r8, r8, #1
 8002ac0:	4545      	cmp	r5, r8
 8002ac2:	d1d1      	bne.n	8002a68 <dir_register+0x114>
 8002ac4:	3d01      	subs	r5, #1
 8002ac6:	d055      	beq.n	8002b74 <dir_register+0x220>
 8002ac8:	88e1      	ldrh	r1, [r4, #6]
 8002aca:	4630      	mov	r0, r6
 8002acc:	1b49      	subs	r1, r1, r5
 8002ace:	f7ff fbc8 	bl	8002262 <dir_sdi>
 8002ad2:	4607      	mov	r7, r0
 8002ad4:	2800      	cmp	r0, #0
 8002ad6:	d1a2      	bne.n	8002a1e <dir_register+0xca>
 8002ad8:	69a0      	ldr	r0, [r4, #24]
 8002ada:	f7ff f91e 	bl	8001d1a <sum_sfn>
 8002ade:	f04f 080f 	mov.w	r8, #15
 8002ae2:	f64f 79ff 	movw	r9, #65535	; 0xffff
 8002ae6:	9001      	str	r0, [sp, #4]
 8002ae8:	6921      	ldr	r1, [r4, #16]
 8002aea:	6820      	ldr	r0, [r4, #0]
 8002aec:	f7ff f983 	bl	8001df6 <move_window>
 8002af0:	4603      	mov	r3, r0
 8002af2:	4607      	mov	r7, r0
 8002af4:	2800      	cmp	r0, #0
 8002af6:	d192      	bne.n	8002a1e <dir_register+0xca>
 8002af8:	6962      	ldr	r2, [r4, #20]
 8002afa:	f8d4 e020 	ldr.w	lr, [r4, #32]
 8002afe:	7310      	strb	r0, [r2, #12]
 8002b00:	7690      	strb	r0, [r2, #26]
 8002b02:	76d0      	strb	r0, [r2, #27]
 8002b04:	200d      	movs	r0, #13
 8002b06:	469c      	mov	ip, r3
 8002b08:	9901      	ldr	r1, [sp, #4]
 8002b0a:	b2ef      	uxtb	r7, r5
 8002b0c:	7351      	strb	r1, [r2, #13]
 8002b0e:	1e79      	subs	r1, r7, #1
 8002b10:	4341      	muls	r1, r0
 8002b12:	f8df a0a0 	ldr.w	sl, [pc, #160]	; 8002bb4 <dir_register+0x260>
 8002b16:	f882 800b 	strb.w	r8, [r2, #11]
 8002b1a:	454b      	cmp	r3, r9
 8002b1c:	bf18      	it	ne
 8002b1e:	f83e 3011 	ldrhne.w	r3, [lr, r1, lsl #1]
 8002b22:	f81a 0b01 	ldrb.w	r0, [sl], #1
 8002b26:	f10c 0c01 	add.w	ip, ip, #1
 8002b2a:	5413      	strb	r3, [r2, r0]
 8002b2c:	bf18      	it	ne
 8002b2e:	3101      	addne	r1, #1
 8002b30:	ea4f 2b13 	mov.w	fp, r3, lsr #8
 8002b34:	4410      	add	r0, r2
 8002b36:	2b00      	cmp	r3, #0
 8002b38:	bf08      	it	eq
 8002b3a:	464b      	moveq	r3, r9
 8002b3c:	f1bc 0f0d 	cmp.w	ip, #13
 8002b40:	f880 b001 	strb.w	fp, [r0, #1]
 8002b44:	d1e9      	bne.n	8002b1a <dir_register+0x1c6>
 8002b46:	454b      	cmp	r3, r9
 8002b48:	d002      	beq.n	8002b50 <dir_register+0x1fc>
 8002b4a:	f83e 3011 	ldrh.w	r3, [lr, r1, lsl #1]
 8002b4e:	b90b      	cbnz	r3, 8002b54 <dir_register+0x200>
 8002b50:	f047 0740 	orr.w	r7, r7, #64	; 0x40
 8002b54:	7017      	strb	r7, [r2, #0]
 8002b56:	2201      	movs	r2, #1
 8002b58:	6823      	ldr	r3, [r4, #0]
 8002b5a:	2100      	movs	r1, #0
 8002b5c:	f503 5380 	add.w	r3, r3, #4096	; 0x1000
 8002b60:	4630      	mov	r0, r6
 8002b62:	711a      	strb	r2, [r3, #4]
 8002b64:	f7ff fcad 	bl	80024c2 <dir_next>
 8002b68:	4607      	mov	r7, r0
 8002b6a:	2800      	cmp	r0, #0
 8002b6c:	f47f af57 	bne.w	8002a1e <dir_register+0xca>
 8002b70:	3d01      	subs	r5, #1
 8002b72:	d1b9      	bne.n	8002ae8 <dir_register+0x194>
 8002b74:	6921      	ldr	r1, [r4, #16]
 8002b76:	6820      	ldr	r0, [r4, #0]
 8002b78:	f7ff f93d 	bl	8001df6 <move_window>
 8002b7c:	4607      	mov	r7, r0
 8002b7e:	2800      	cmp	r0, #0
 8002b80:	f47f af4d 	bne.w	8002a1e <dir_register+0xca>
 8002b84:	4601      	mov	r1, r0
 8002b86:	2220      	movs	r2, #32
 8002b88:	6960      	ldr	r0, [r4, #20]
 8002b8a:	f7fe fff3 	bl	8001b74 <mem_set>
 8002b8e:	e9d4 0105 	ldrd	r0, r1, [r4, #20]
 8002b92:	220b      	movs	r2, #11
 8002b94:	f7fe ffe4 	bl	8001b60 <mem_cpy>
 8002b98:	e9d4 2305 	ldrd	r2, r3, [r4, #20]
 8002b9c:	7adb      	ldrb	r3, [r3, #11]
 8002b9e:	f003 0318 	and.w	r3, r3, #24
 8002ba2:	7313      	strb	r3, [r2, #12]
 8002ba4:	2201      	movs	r2, #1
 8002ba6:	6823      	ldr	r3, [r4, #0]
 8002ba8:	f503 5380 	add.w	r3, r3, #4096	; 0x1000
 8002bac:	711a      	strb	r2, [r3, #4]
 8002bae:	e736      	b.n	8002a1e <dir_register+0xca>
 8002bb0:	00011021 	.word	0x00011021
 8002bb4:	08003395 	.word	0x08003395

08002bb8 <remove_chain>:
 8002bb8:	2901      	cmp	r1, #1
 8002bba:	b5f8      	push	{r3, r4, r5, r6, r7, lr}
 8002bbc:	4606      	mov	r6, r0
 8002bbe:	460c      	mov	r4, r1
 8002bc0:	d925      	bls.n	8002c0e <remove_chain+0x56>
 8002bc2:	f500 5580 	add.w	r5, r0, #4096	; 0x1000
 8002bc6:	696b      	ldr	r3, [r5, #20]
 8002bc8:	428b      	cmp	r3, r1
 8002bca:	d920      	bls.n	8002c0e <remove_chain+0x56>
 8002bcc:	4621      	mov	r1, r4
 8002bce:	4630      	mov	r0, r6
 8002bd0:	f7ff fad1 	bl	8002176 <get_fat>
 8002bd4:	4627      	mov	r7, r4
 8002bd6:	4604      	mov	r4, r0
 8002bd8:	b908      	cbnz	r0, 8002bde <remove_chain+0x26>
 8002bda:	2000      	movs	r0, #0
 8002bdc:	bdf8      	pop	{r3, r4, r5, r6, r7, pc}
 8002bde:	2801      	cmp	r0, #1
 8002be0:	d015      	beq.n	8002c0e <remove_chain+0x56>
 8002be2:	1c41      	adds	r1, r0, #1
 8002be4:	d015      	beq.n	8002c12 <remove_chain+0x5a>
 8002be6:	2200      	movs	r2, #0
 8002be8:	4639      	mov	r1, r7
 8002bea:	4630      	mov	r0, r6
 8002bec:	f7ff fb83 	bl	80022f6 <put_fat>
 8002bf0:	2800      	cmp	r0, #0
 8002bf2:	d1f3      	bne.n	8002bdc <remove_chain+0x24>
 8002bf4:	692b      	ldr	r3, [r5, #16]
 8002bf6:	1c5a      	adds	r2, r3, #1
 8002bf8:	d005      	beq.n	8002c06 <remove_chain+0x4e>
 8002bfa:	3301      	adds	r3, #1
 8002bfc:	612b      	str	r3, [r5, #16]
 8002bfe:	796b      	ldrb	r3, [r5, #5]
 8002c00:	f043 0301 	orr.w	r3, r3, #1
 8002c04:	716b      	strb	r3, [r5, #5]
 8002c06:	696b      	ldr	r3, [r5, #20]
 8002c08:	429c      	cmp	r4, r3
 8002c0a:	d3df      	bcc.n	8002bcc <remove_chain+0x14>
 8002c0c:	e7e5      	b.n	8002bda <remove_chain+0x22>
 8002c0e:	2002      	movs	r0, #2
 8002c10:	e7e4      	b.n	8002bdc <remove_chain+0x24>
 8002c12:	2001      	movs	r0, #1
 8002c14:	e7e2      	b.n	8002bdc <remove_chain+0x24>
	...

08002c18 <f_mount>:
 8002c18:	b530      	push	{r4, r5, lr}
 8002c1a:	b085      	sub	sp, #20
 8002c1c:	e9cd 1000 	strd	r1, r0, [sp]
 8002c20:	a803      	add	r0, sp, #12
 8002c22:	9103      	str	r1, [sp, #12]
 8002c24:	4614      	mov	r4, r2
 8002c26:	f7ff f887 	bl	8001d38 <get_ldnumber>
 8002c2a:	1e01      	subs	r1, r0, #0
 8002c2c:	db1b      	blt.n	8002c66 <f_mount+0x4e>
 8002c2e:	4d10      	ldr	r5, [pc, #64]	; (8002c70 <f_mount+0x58>)
 8002c30:	f855 0021 	ldr.w	r0, [r5, r1, lsl #2]
 8002c34:	b128      	cbz	r0, 8002c42 <f_mount+0x2a>
 8002c36:	f7ff f84b 	bl	8001cd0 <clear_lock>
 8002c3a:	2300      	movs	r3, #0
 8002c3c:	f500 5080 	add.w	r0, r0, #4096	; 0x1000
 8002c40:	7003      	strb	r3, [r0, #0]
 8002c42:	9801      	ldr	r0, [sp, #4]
 8002c44:	b118      	cbz	r0, 8002c4e <f_mount+0x36>
 8002c46:	2200      	movs	r2, #0
 8002c48:	f500 5380 	add.w	r3, r0, #4096	; 0x1000
 8002c4c:	701a      	strb	r2, [r3, #0]
 8002c4e:	f845 0021 	str.w	r0, [r5, r1, lsl #2]
 8002c52:	b130      	cbz	r0, 8002c62 <f_mount+0x4a>
 8002c54:	2c01      	cmp	r4, #1
 8002c56:	d108      	bne.n	8002c6a <f_mount+0x52>
 8002c58:	2200      	movs	r2, #0
 8002c5a:	4669      	mov	r1, sp
 8002c5c:	a801      	add	r0, sp, #4
 8002c5e:	f7ff f90d 	bl	8001e7c <find_volume>
 8002c62:	b005      	add	sp, #20
 8002c64:	bd30      	pop	{r4, r5, pc}
 8002c66:	200b      	movs	r0, #11
 8002c68:	e7fb      	b.n	8002c62 <f_mount+0x4a>
 8002c6a:	2000      	movs	r0, #0
 8002c6c:	e7f9      	b.n	8002c62 <f_mount+0x4a>
 8002c6e:	bf00      	nop
 8002c70:	20002184 	.word	0x20002184

08002c74 <f_open>:
 8002c74:	e92d 43f0 	stmdb	sp!, {r4, r5, r6, r7, r8, r9, lr}
 8002c78:	f5ad 5d82 	sub.w	sp, sp, #4160	; 0x1040
 8002c7c:	b081      	sub	sp, #4
 8002c7e:	ae10      	add	r6, sp, #64	; 0x40
 8002c80:	4690      	mov	r8, r2
 8002c82:	f846 1c3c 	str.w	r1, [r6, #-60]
 8002c86:	2800      	cmp	r0, #0
 8002c88:	f000 80b2 	beq.w	8002df0 <f_open+0x17c>
 8002c8c:	2300      	movs	r3, #0
 8002c8e:	f500 5580 	add.w	r5, r0, #4096	; 0x1000
 8002c92:	f50d 5080 	add.w	r0, sp, #4096	; 0x1000
 8002c96:	602b      	str	r3, [r5, #0]
 8002c98:	f002 021e 	and.w	r2, r2, #30
 8002c9c:	a901      	add	r1, sp, #4
 8002c9e:	3018      	adds	r0, #24
 8002ca0:	f7ff f8ec 	bl	8001e7c <find_volume>
 8002ca4:	bb48      	cbnz	r0, 8002cfa <f_open+0x86>
 8002ca6:	ab03      	add	r3, sp, #12
 8002ca8:	f8c6 3ff0 	str.w	r3, [r6, #4080]	; 0xff0
 8002cac:	4b60      	ldr	r3, [pc, #384]	; (8002e30 <f_open+0x1bc>)
 8002cae:	f856 1c3c 	ldr.w	r1, [r6, #-60]
 8002cb2:	a806      	add	r0, sp, #24
 8002cb4:	f8c6 3ff8 	str.w	r3, [r6, #4088]	; 0xff8
 8002cb8:	f7ff fd24 	bl	8002704 <follow_path>
 8002cbc:	f008 041f 	and.w	r4, r8, #31
 8002cc0:	f8d6 7fec 	ldr.w	r7, [r6, #4076]	; 0xfec
 8002cc4:	b940      	cbnz	r0, 8002cd8 <f_open+0x64>
 8002cc6:	b1ef      	cbz	r7, 8002d04 <f_open+0x90>
 8002cc8:	f014 0f1e 	tst.w	r4, #30
 8002ccc:	bf14      	ite	ne
 8002cce:	2101      	movne	r1, #1
 8002cd0:	2100      	moveq	r1, #0
 8002cd2:	a806      	add	r0, sp, #24
 8002cd4:	f7fe ff56 	bl	8001b84 <chk_lock>
 8002cd8:	f018 0f1c 	tst.w	r8, #28
 8002cdc:	d07c      	beq.n	8002dd8 <f_open+0x164>
 8002cde:	b198      	cbz	r0, 8002d08 <f_open+0x94>
 8002ce0:	2804      	cmp	r0, #4
 8002ce2:	d10a      	bne.n	8002cfa <f_open+0x86>
 8002ce4:	4b53      	ldr	r3, [pc, #332]	; (8002e34 <f_open+0x1c0>)
 8002ce6:	681a      	ldr	r2, [r3, #0]
 8002ce8:	b11a      	cbz	r2, 8002cf2 <f_open+0x7e>
 8002cea:	68db      	ldr	r3, [r3, #12]
 8002cec:	2b00      	cmp	r3, #0
 8002cee:	f040 8081 	bne.w	8002df4 <f_open+0x180>
 8002cf2:	a806      	add	r0, sp, #24
 8002cf4:	f7ff fe2e 	bl	8002954 <dir_register>
 8002cf8:	b188      	cbz	r0, 8002d1e <f_open+0xaa>
 8002cfa:	f50d 5d82 	add.w	sp, sp, #4160	; 0x1040
 8002cfe:	b001      	add	sp, #4
 8002d00:	e8bd 83f0 	ldmia.w	sp!, {r4, r5, r6, r7, r8, r9, pc}
 8002d04:	2006      	movs	r0, #6
 8002d06:	e7e7      	b.n	8002cd8 <f_open+0x64>
 8002d08:	7afb      	ldrb	r3, [r7, #11]
 8002d0a:	f013 0f11 	tst.w	r3, #17
 8002d0e:	d16d      	bne.n	8002dec <f_open+0x178>
 8002d10:	f018 0f04 	tst.w	r8, #4
 8002d14:	d170      	bne.n	8002df8 <f_open+0x184>
 8002d16:	f018 0f08 	tst.w	r8, #8
 8002d1a:	d046      	beq.n	8002daa <f_open+0x136>
 8002d1c:	e003      	b.n	8002d26 <f_open+0xb2>
 8002d1e:	f8d6 7fec 	ldr.w	r7, [r6, #4076]	; 0xfec
 8002d22:	f044 0408 	orr.w	r4, r4, #8
 8002d26:	f7fe febd 	bl	8001aa4 <get_fattime>
 8002d2a:	f04f 0800 	mov.w	r8, #0
 8002d2e:	f3c0 2307 	ubfx	r3, r0, #8, #8
 8002d32:	73b8      	strb	r0, [r7, #14]
 8002d34:	73fb      	strb	r3, [r7, #15]
 8002d36:	0c03      	lsrs	r3, r0, #16
 8002d38:	0e00      	lsrs	r0, r0, #24
 8002d3a:	f887 800b 	strb.w	r8, [r7, #11]
 8002d3e:	f887 801c 	strb.w	r8, [r7, #28]
 8002d42:	f887 801d 	strb.w	r8, [r7, #29]
 8002d46:	f887 801e 	strb.w	r8, [r7, #30]
 8002d4a:	f887 801f 	strb.w	r8, [r7, #31]
 8002d4e:	743b      	strb	r3, [r7, #16]
 8002d50:	7478      	strb	r0, [r7, #17]
 8002d52:	f8d6 3fd8 	ldr.w	r3, [r6, #4056]	; 0xfd8
 8002d56:	4639      	mov	r1, r7
 8002d58:	f503 5380 	add.w	r3, r3, #4096	; 0x1000
 8002d5c:	7818      	ldrb	r0, [r3, #0]
 8002d5e:	f7ff f9f5 	bl	800214c <ld_clust.isra.0>
 8002d62:	2101      	movs	r1, #1
 8002d64:	f887 801a 	strb.w	r8, [r7, #26]
 8002d68:	f887 801b 	strb.w	r8, [r7, #27]
 8002d6c:	f887 8014 	strb.w	r8, [r7, #20]
 8002d70:	f887 8015 	strb.w	r8, [r7, #21]
 8002d74:	f8d6 3fd8 	ldr.w	r3, [r6, #4056]	; 0xfd8
 8002d78:	4680      	mov	r8, r0
 8002d7a:	f503 5280 	add.w	r2, r3, #4096	; 0x1000
 8002d7e:	7111      	strb	r1, [r2, #4]
 8002d80:	b198      	cbz	r0, 8002daa <f_open+0x136>
 8002d82:	4601      	mov	r1, r0
 8002d84:	4618      	mov	r0, r3
 8002d86:	f8d2 902c 	ldr.w	r9, [r2, #44]	; 0x2c
 8002d8a:	f7ff ff15 	bl	8002bb8 <remove_chain>
 8002d8e:	2800      	cmp	r0, #0
 8002d90:	d1b3      	bne.n	8002cfa <f_open+0x86>
 8002d92:	f8d6 0fd8 	ldr.w	r0, [r6, #4056]	; 0xfd8
 8002d96:	f108 31ff 	add.w	r1, r8, #4294967295
 8002d9a:	f500 5380 	add.w	r3, r0, #4096	; 0x1000
 8002d9e:	60d9      	str	r1, [r3, #12]
 8002da0:	4649      	mov	r1, r9
 8002da2:	f7ff f828 	bl	8001df6 <move_window>
 8002da6:	2800      	cmp	r0, #0
 8002da8:	d1a7      	bne.n	8002cfa <f_open+0x86>
 8002daa:	0723      	lsls	r3, r4, #28
 8002dac:	f8d6 3fd8 	ldr.w	r3, [r6, #4056]	; 0xfd8
 8002db0:	bf48      	it	mi
 8002db2:	f044 0420 	orrmi.w	r4, r4, #32
 8002db6:	f503 5380 	add.w	r3, r3, #4096	; 0x1000
 8002dba:	6adb      	ldr	r3, [r3, #44]	; 0x2c
 8002dbc:	f014 0ffe 	tst.w	r4, #254	; 0xfe
 8002dc0:	bf14      	ite	ne
 8002dc2:	2101      	movne	r1, #1
 8002dc4:	2100      	moveq	r1, #0
 8002dc6:	e9c5 3707 	strd	r3, r7, [r5, #28]
 8002dca:	a806      	add	r0, sp, #24
 8002dcc:	f7fe ff1a 	bl	8001c04 <inc_lock>
 8002dd0:	62a8      	str	r0, [r5, #40]	; 0x28
 8002dd2:	b9a8      	cbnz	r0, 8002e00 <f_open+0x18c>
 8002dd4:	2002      	movs	r0, #2
 8002dd6:	e790      	b.n	8002cfa <f_open+0x86>
 8002dd8:	2800      	cmp	r0, #0
 8002dda:	d18e      	bne.n	8002cfa <f_open+0x86>
 8002ddc:	7afb      	ldrb	r3, [r7, #11]
 8002dde:	06d8      	lsls	r0, r3, #27
 8002de0:	d40c      	bmi.n	8002dfc <f_open+0x188>
 8002de2:	f018 0f02 	tst.w	r8, #2
 8002de6:	d0e0      	beq.n	8002daa <f_open+0x136>
 8002de8:	07da      	lsls	r2, r3, #31
 8002dea:	d5de      	bpl.n	8002daa <f_open+0x136>
 8002dec:	2007      	movs	r0, #7
 8002dee:	e784      	b.n	8002cfa <f_open+0x86>
 8002df0:	2009      	movs	r0, #9
 8002df2:	e782      	b.n	8002cfa <f_open+0x86>
 8002df4:	2012      	movs	r0, #18
 8002df6:	e780      	b.n	8002cfa <f_open+0x86>
 8002df8:	2008      	movs	r0, #8
 8002dfa:	e77e      	b.n	8002cfa <f_open+0x86>
 8002dfc:	2004      	movs	r0, #4
 8002dfe:	e77c      	b.n	8002cfa <f_open+0x86>
 8002e00:	71ac      	strb	r4, [r5, #6]
 8002e02:	2400      	movs	r4, #0
 8002e04:	f8d6 8fd8 	ldr.w	r8, [r6, #4056]	; 0xfd8
 8002e08:	71ec      	strb	r4, [r5, #7]
 8002e0a:	f508 5680 	add.w	r6, r8, #4096	; 0x1000
 8002e0e:	7830      	ldrb	r0, [r6, #0]
 8002e10:	4639      	mov	r1, r7
 8002e12:	f7ff f99b 	bl	800214c <ld_clust.isra.0>
 8002e16:	6128      	str	r0, [r5, #16]
 8002e18:	69fb      	ldr	r3, [r7, #28]
 8002e1a:	4620      	mov	r0, r4
 8002e1c:	e9c5 4302 	strd	r4, r3, [r5, #8]
 8002e20:	88f3      	ldrh	r3, [r6, #6]
 8002e22:	61ac      	str	r4, [r5, #24]
 8002e24:	626c      	str	r4, [r5, #36]	; 0x24
 8002e26:	f8c5 8000 	str.w	r8, [r5]
 8002e2a:	80ab      	strh	r3, [r5, #4]
 8002e2c:	e765      	b.n	8002cfa <f_open+0x86>
 8002e2e:	bf00      	nop
 8002e30:	200021a2 	.word	0x200021a2
 8002e34:	20002188 	.word	0x20002188

08002e38 <f_read>:
 8002e38:	e92d 4ff7 	stmdb	sp!, {r0, r1, r2, r4, r5, r6, r7, r8, r9, sl, fp, lr}
 8002e3c:	469b      	mov	fp, r3
 8002e3e:	2300      	movs	r3, #0
 8002e40:	f8cb 3000 	str.w	r3, [fp]
 8002e44:	4681      	mov	r9, r0
 8002e46:	468a      	mov	sl, r1
 8002e48:	4617      	mov	r7, r2
 8002e4a:	f7fe ff8d 	bl	8001d68 <validate>
 8002e4e:	4605      	mov	r5, r0
 8002e50:	bb58      	cbnz	r0, 8002eaa <f_read+0x72>
 8002e52:	f509 5480 	add.w	r4, r9, #4096	; 0x1000
 8002e56:	79e5      	ldrb	r5, [r4, #7]
 8002e58:	bb3d      	cbnz	r5, 8002eaa <f_read+0x72>
 8002e5a:	79a3      	ldrb	r3, [r4, #6]
 8002e5c:	f013 0301 	ands.w	r3, r3, #1
 8002e60:	9300      	str	r3, [sp, #0]
 8002e62:	f000 80a9 	beq.w	8002fb8 <f_read+0x180>
 8002e66:	e9d4 2602 	ldrd	r2, r6, [r4, #8]
 8002e6a:	1ab6      	subs	r6, r6, r2
 8002e6c:	42be      	cmp	r6, r7
 8002e6e:	bf28      	it	cs
 8002e70:	463e      	movcs	r6, r7
 8002e72:	b1d6      	cbz	r6, 8002eaa <f_read+0x72>
 8002e74:	6820      	ldr	r0, [r4, #0]
 8002e76:	68a1      	ldr	r1, [r4, #8]
 8002e78:	f500 5780 	add.w	r7, r0, #4096	; 0x1000
 8002e7c:	897b      	ldrh	r3, [r7, #10]
 8002e7e:	fbb1 f2f3 	udiv	r2, r1, r3
 8002e82:	fb03 1312 	mls	r3, r3, r2, r1
 8002e86:	2b00      	cmp	r3, #0
 8002e88:	f040 8083 	bne.w	8002f92 <f_read+0x15a>
 8002e8c:	f897 8002 	ldrb.w	r8, [r7, #2]
 8002e90:	f108 38ff 	add.w	r8, r8, #4294967295
 8002e94:	ea08 0802 	and.w	r8, r8, r2
 8002e98:	f018 08ff 	ands.w	r8, r8, #255	; 0xff
 8002e9c:	d11a      	bne.n	8002ed4 <f_read+0x9c>
 8002e9e:	b941      	cbnz	r1, 8002eb2 <f_read+0x7a>
 8002ea0:	6920      	ldr	r0, [r4, #16]
 8002ea2:	2801      	cmp	r0, #1
 8002ea4:	d80f      	bhi.n	8002ec6 <f_read+0x8e>
 8002ea6:	2502      	movs	r5, #2
 8002ea8:	71e5      	strb	r5, [r4, #7]
 8002eaa:	4628      	mov	r0, r5
 8002eac:	b003      	add	sp, #12
 8002eae:	e8bd 8ff0 	ldmia.w	sp!, {r4, r5, r6, r7, r8, r9, sl, fp, pc}
 8002eb2:	6a63      	ldr	r3, [r4, #36]	; 0x24
 8002eb4:	b11b      	cbz	r3, 8002ebe <f_read+0x86>
 8002eb6:	4648      	mov	r0, r9
 8002eb8:	f7fe ff18 	bl	8001cec <clmt_clust>
 8002ebc:	e7f1      	b.n	8002ea2 <f_read+0x6a>
 8002ebe:	6961      	ldr	r1, [r4, #20]
 8002ec0:	f7ff f959 	bl	8002176 <get_fat>
 8002ec4:	e7ed      	b.n	8002ea2 <f_read+0x6a>
 8002ec6:	1c42      	adds	r2, r0, #1
 8002ec8:	d103      	bne.n	8002ed2 <f_read+0x9a>
 8002eca:	2301      	movs	r3, #1
 8002ecc:	9d00      	ldr	r5, [sp, #0]
 8002ece:	71e3      	strb	r3, [r4, #7]
 8002ed0:	e7eb      	b.n	8002eaa <f_read+0x72>
 8002ed2:	6160      	str	r0, [r4, #20]
 8002ed4:	6822      	ldr	r2, [r4, #0]
 8002ed6:	6961      	ldr	r1, [r4, #20]
 8002ed8:	4610      	mov	r0, r2
 8002eda:	f7ff f93f 	bl	800215c <clust2sect>
 8002ede:	2800      	cmp	r0, #0
 8002ee0:	d0e1      	beq.n	8002ea6 <f_read+0x6e>
 8002ee2:	eb00 0708 	add.w	r7, r0, r8
 8002ee6:	f502 5080 	add.w	r0, r2, #4096	; 0x1000
 8002eea:	8943      	ldrh	r3, [r0, #10]
 8002eec:	42b3      	cmp	r3, r6
 8002eee:	d833      	bhi.n	8002f58 <f_read+0x120>
 8002ef0:	fbb6 f3f3 	udiv	r3, r6, r3
 8002ef4:	7882      	ldrb	r2, [r0, #2]
 8002ef6:	eb08 0103 	add.w	r1, r8, r3
 8002efa:	4291      	cmp	r1, r2
 8002efc:	bf88      	it	hi
 8002efe:	eba2 0308 	subhi.w	r3, r2, r8
 8002f02:	4651      	mov	r1, sl
 8002f04:	463a      	mov	r2, r7
 8002f06:	7840      	ldrb	r0, [r0, #1]
 8002f08:	9301      	str	r3, [sp, #4]
 8002f0a:	f7fe fe01 	bl	8001b10 <disk_read>
 8002f0e:	2800      	cmp	r0, #0
 8002f10:	d1db      	bne.n	8002eca <f_read+0x92>
 8002f12:	79a2      	ldrb	r2, [r4, #6]
 8002f14:	9b01      	ldr	r3, [sp, #4]
 8002f16:	f012 0f40 	tst.w	r2, #64	; 0x40
 8002f1a:	d00d      	beq.n	8002f38 <f_read+0x100>
 8002f1c:	69a0      	ldr	r0, [r4, #24]
 8002f1e:	1bc0      	subs	r0, r0, r7
 8002f20:	4283      	cmp	r3, r0
 8002f22:	d909      	bls.n	8002f38 <f_read+0x100>
 8002f24:	6822      	ldr	r2, [r4, #0]
 8002f26:	4649      	mov	r1, r9
 8002f28:	f502 5280 	add.w	r2, r2, #4096	; 0x1000
 8002f2c:	8952      	ldrh	r2, [r2, #10]
 8002f2e:	fb02 a000 	mla	r0, r2, r0, sl
 8002f32:	f7fe fe15 	bl	8001b60 <mem_cpy>
 8002f36:	9b01      	ldr	r3, [sp, #4]
 8002f38:	6822      	ldr	r2, [r4, #0]
 8002f3a:	f502 5280 	add.w	r2, r2, #4096	; 0x1000
 8002f3e:	8957      	ldrh	r7, [r2, #10]
 8002f40:	435f      	muls	r7, r3
 8002f42:	68a3      	ldr	r3, [r4, #8]
 8002f44:	44ba      	add	sl, r7
 8002f46:	443b      	add	r3, r7
 8002f48:	60a3      	str	r3, [r4, #8]
 8002f4a:	f8db 3000 	ldr.w	r3, [fp]
 8002f4e:	1bf6      	subs	r6, r6, r7
 8002f50:	443b      	add	r3, r7
 8002f52:	f8cb 3000 	str.w	r3, [fp]
 8002f56:	e78c      	b.n	8002e72 <f_read+0x3a>
 8002f58:	69a2      	ldr	r2, [r4, #24]
 8002f5a:	4297      	cmp	r7, r2
 8002f5c:	d018      	beq.n	8002f90 <f_read+0x158>
 8002f5e:	79a3      	ldrb	r3, [r4, #6]
 8002f60:	065b      	lsls	r3, r3, #25
 8002f62:	d50a      	bpl.n	8002f7a <f_read+0x142>
 8002f64:	2301      	movs	r3, #1
 8002f66:	4649      	mov	r1, r9
 8002f68:	7840      	ldrb	r0, [r0, #1]
 8002f6a:	f7fe fddf 	bl	8001b2c <disk_write>
 8002f6e:	2800      	cmp	r0, #0
 8002f70:	d1ab      	bne.n	8002eca <f_read+0x92>
 8002f72:	79a3      	ldrb	r3, [r4, #6]
 8002f74:	f023 0340 	bic.w	r3, r3, #64	; 0x40
 8002f78:	71a3      	strb	r3, [r4, #6]
 8002f7a:	6823      	ldr	r3, [r4, #0]
 8002f7c:	463a      	mov	r2, r7
 8002f7e:	f503 5080 	add.w	r0, r3, #4096	; 0x1000
 8002f82:	4649      	mov	r1, r9
 8002f84:	2301      	movs	r3, #1
 8002f86:	7840      	ldrb	r0, [r0, #1]
 8002f88:	f7fe fdc2 	bl	8001b10 <disk_read>
 8002f8c:	2800      	cmp	r0, #0
 8002f8e:	d19c      	bne.n	8002eca <f_read+0x92>
 8002f90:	61a7      	str	r7, [r4, #24]
 8002f92:	6823      	ldr	r3, [r4, #0]
 8002f94:	68a1      	ldr	r1, [r4, #8]
 8002f96:	f503 5380 	add.w	r3, r3, #4096	; 0x1000
 8002f9a:	895f      	ldrh	r7, [r3, #10]
 8002f9c:	4650      	mov	r0, sl
 8002f9e:	fbb1 f3f7 	udiv	r3, r1, r7
 8002fa2:	fb07 1113 	mls	r1, r7, r3, r1
 8002fa6:	1a7f      	subs	r7, r7, r1
 8002fa8:	42b7      	cmp	r7, r6
 8002faa:	bf28      	it	cs
 8002fac:	4637      	movcs	r7, r6
 8002fae:	4449      	add	r1, r9
 8002fb0:	463a      	mov	r2, r7
 8002fb2:	f7fe fdd5 	bl	8001b60 <mem_cpy>
 8002fb6:	e7c4      	b.n	8002f42 <f_read+0x10a>
 8002fb8:	2507      	movs	r5, #7
 8002fba:	e776      	b.n	8002eaa <f_read+0x72>

08002fbc <f_sync>:
 8002fbc:	b570      	push	{r4, r5, r6, lr}
 8002fbe:	4605      	mov	r5, r0
 8002fc0:	f7fe fed2 	bl	8001d68 <validate>
 8002fc4:	2800      	cmp	r0, #0
 8002fc6:	d14d      	bne.n	8003064 <f_sync+0xa8>
 8002fc8:	f505 5480 	add.w	r4, r5, #4096	; 0x1000
 8002fcc:	79a3      	ldrb	r3, [r4, #6]
 8002fce:	f013 0020 	ands.w	r0, r3, #32
 8002fd2:	d047      	beq.n	8003064 <f_sync+0xa8>
 8002fd4:	065b      	lsls	r3, r3, #25
 8002fd6:	d50e      	bpl.n	8002ff6 <f_sync+0x3a>
 8002fd8:	6823      	ldr	r3, [r4, #0]
 8002fda:	4629      	mov	r1, r5
 8002fdc:	f503 5080 	add.w	r0, r3, #4096	; 0x1000
 8002fe0:	69a2      	ldr	r2, [r4, #24]
 8002fe2:	2301      	movs	r3, #1
 8002fe4:	7840      	ldrb	r0, [r0, #1]
 8002fe6:	f7fe fda1 	bl	8001b2c <disk_write>
 8002fea:	2800      	cmp	r0, #0
 8002fec:	d139      	bne.n	8003062 <f_sync+0xa6>
 8002fee:	79a3      	ldrb	r3, [r4, #6]
 8002ff0:	f023 0340 	bic.w	r3, r3, #64	; 0x40
 8002ff4:	71a3      	strb	r3, [r4, #6]
 8002ff6:	69e1      	ldr	r1, [r4, #28]
 8002ff8:	6820      	ldr	r0, [r4, #0]
 8002ffa:	f7fe fefc 	bl	8001df6 <move_window>
 8002ffe:	4606      	mov	r6, r0
 8003000:	bb80      	cbnz	r0, 8003064 <f_sync+0xa8>
 8003002:	6a25      	ldr	r5, [r4, #32]
 8003004:	7aeb      	ldrb	r3, [r5, #11]
 8003006:	f043 0320 	orr.w	r3, r3, #32
 800300a:	72eb      	strb	r3, [r5, #11]
 800300c:	68e3      	ldr	r3, [r4, #12]
 800300e:	772b      	strb	r3, [r5, #28]
 8003010:	89a3      	ldrh	r3, [r4, #12]
 8003012:	0a1b      	lsrs	r3, r3, #8
 8003014:	776b      	strb	r3, [r5, #29]
 8003016:	89e3      	ldrh	r3, [r4, #14]
 8003018:	77ab      	strb	r3, [r5, #30]
 800301a:	7be3      	ldrb	r3, [r4, #15]
 800301c:	77eb      	strb	r3, [r5, #31]
 800301e:	6923      	ldr	r3, [r4, #16]
 8003020:	f3c3 2207 	ubfx	r2, r3, #8, #8
 8003024:	76ab      	strb	r3, [r5, #26]
 8003026:	0c1b      	lsrs	r3, r3, #16
 8003028:	752b      	strb	r3, [r5, #20]
 800302a:	0a1b      	lsrs	r3, r3, #8
 800302c:	76ea      	strb	r2, [r5, #27]
 800302e:	756b      	strb	r3, [r5, #21]
 8003030:	f7fe fd38 	bl	8001aa4 <get_fattime>
 8003034:	2201      	movs	r2, #1
 8003036:	f3c0 2307 	ubfx	r3, r0, #8, #8
 800303a:	75eb      	strb	r3, [r5, #23]
 800303c:	0c03      	lsrs	r3, r0, #16
 800303e:	762b      	strb	r3, [r5, #24]
 8003040:	0e03      	lsrs	r3, r0, #24
 8003042:	75a8      	strb	r0, [r5, #22]
 8003044:	766b      	strb	r3, [r5, #25]
 8003046:	74ae      	strb	r6, [r5, #18]
 8003048:	74ee      	strb	r6, [r5, #19]
 800304a:	79a3      	ldrb	r3, [r4, #6]
 800304c:	6820      	ldr	r0, [r4, #0]
 800304e:	f023 0320 	bic.w	r3, r3, #32
 8003052:	71a3      	strb	r3, [r4, #6]
 8003054:	f500 5380 	add.w	r3, r0, #4096	; 0x1000
 8003058:	711a      	strb	r2, [r3, #4]
 800305a:	e8bd 4070 	ldmia.w	sp!, {r4, r5, r6, lr}
 800305e:	f7ff b83b 	b.w	80020d8 <sync_fs>
 8003062:	2001      	movs	r0, #1
 8003064:	bd70      	pop	{r4, r5, r6, pc}

08003066 <f_close>:
 8003066:	b510      	push	{r4, lr}
 8003068:	4604      	mov	r4, r0
 800306a:	f7ff ffa7 	bl	8002fbc <f_sync>
 800306e:	b950      	cbnz	r0, 8003086 <f_close+0x20>
 8003070:	4620      	mov	r0, r4
 8003072:	f7fe fe79 	bl	8001d68 <validate>
 8003076:	b930      	cbnz	r0, 8003086 <f_close+0x20>
 8003078:	f504 5480 	add.w	r4, r4, #4096	; 0x1000
 800307c:	6aa0      	ldr	r0, [r4, #40]	; 0x28
 800307e:	f7fe fe07 	bl	8001c90 <dec_lock>
 8003082:	b900      	cbnz	r0, 8003086 <f_close+0x20>
 8003084:	6020      	str	r0, [r4, #0]
 8003086:	bd10      	pop	{r4, pc}

08003088 <f_gets>:
 8003088:	e92d 41f3 	stmdb	sp!, {r0, r1, r4, r5, r6, r7, r8, lr}
 800308c:	4604      	mov	r4, r0
 800308e:	4690      	mov	r8, r2
 8003090:	4606      	mov	r6, r0
 8003092:	2500      	movs	r5, #0
 8003094:	1e4f      	subs	r7, r1, #1
 8003096:	42bd      	cmp	r5, r7
 8003098:	da12      	bge.n	80030c0 <f_gets+0x38>
 800309a:	ab01      	add	r3, sp, #4
 800309c:	2201      	movs	r2, #1
 800309e:	4669      	mov	r1, sp
 80030a0:	4640      	mov	r0, r8
 80030a2:	f7ff fec9 	bl	8002e38 <f_read>
 80030a6:	9b01      	ldr	r3, [sp, #4]
 80030a8:	2b01      	cmp	r3, #1
 80030aa:	d109      	bne.n	80030c0 <f_gets+0x38>
 80030ac:	f89d 3000 	ldrb.w	r3, [sp]
 80030b0:	2b0d      	cmp	r3, #13
 80030b2:	d0f0      	beq.n	8003096 <f_gets+0xe>
 80030b4:	2b0a      	cmp	r3, #10
 80030b6:	f806 3b01 	strb.w	r3, [r6], #1
 80030ba:	f105 0501 	add.w	r5, r5, #1
 80030be:	d1ea      	bne.n	8003096 <f_gets+0xe>
 80030c0:	2300      	movs	r3, #0
 80030c2:	429d      	cmp	r5, r3
 80030c4:	bf14      	ite	ne
 80030c6:	4620      	movne	r0, r4
 80030c8:	4618      	moveq	r0, r3
 80030ca:	7033      	strb	r3, [r6, #0]
 80030cc:	b002      	add	sp, #8
 80030ce:	e8bd 81f0 	ldmia.w	sp!, {r4, r5, r6, r7, r8, pc}
	...

080030d4 <FATFS_LinkDriverEx>:
 80030d4:	b530      	push	{r4, r5, lr}
 80030d6:	4b0f      	ldr	r3, [pc, #60]	; (8003114 <FATFS_LinkDriverEx+0x40>)
 80030d8:	4605      	mov	r5, r0
 80030da:	7a58      	ldrb	r0, [r3, #9]
 80030dc:	2801      	cmp	r0, #1
 80030de:	d816      	bhi.n	800310e <FATFS_LinkDriverEx+0x3a>
 80030e0:	2000      	movs	r0, #0
 80030e2:	7a5c      	ldrb	r4, [r3, #9]
 80030e4:	b2e4      	uxtb	r4, r4
 80030e6:	5518      	strb	r0, [r3, r4]
 80030e8:	7a5c      	ldrb	r4, [r3, #9]
 80030ea:	eb03 0484 	add.w	r4, r3, r4, lsl #2
 80030ee:	6065      	str	r5, [r4, #4]
 80030f0:	7a5c      	ldrb	r4, [r3, #9]
 80030f2:	441c      	add	r4, r3
 80030f4:	7222      	strb	r2, [r4, #8]
 80030f6:	7a5a      	ldrb	r2, [r3, #9]
 80030f8:	1c54      	adds	r4, r2, #1
 80030fa:	b2e4      	uxtb	r4, r4
 80030fc:	725c      	strb	r4, [r3, #9]
 80030fe:	233a      	movs	r3, #58	; 0x3a
 8003100:	704b      	strb	r3, [r1, #1]
 8003102:	232f      	movs	r3, #47	; 0x2f
 8003104:	3230      	adds	r2, #48	; 0x30
 8003106:	700a      	strb	r2, [r1, #0]
 8003108:	708b      	strb	r3, [r1, #2]
 800310a:	70c8      	strb	r0, [r1, #3]
 800310c:	bd30      	pop	{r4, r5, pc}
 800310e:	2001      	movs	r0, #1
 8003110:	e7fc      	b.n	800310c <FATFS_LinkDriverEx+0x38>
 8003112:	bf00      	nop
 8003114:	200023a4 	.word	0x200023a4

08003118 <FATFS_LinkDriver>:
 8003118:	2200      	movs	r2, #0
 800311a:	f7ff bfdb 	b.w	80030d4 <FATFS_LinkDriverEx>
	...

08003120 <ff_convert>:
 8003120:	287f      	cmp	r0, #127	; 0x7f
 8003122:	b510      	push	{r4, lr}
 8003124:	d906      	bls.n	8003134 <ff_convert+0x14>
 8003126:	b131      	cbz	r1, 8003136 <ff_convert+0x16>
 8003128:	28ff      	cmp	r0, #255	; 0xff
 800312a:	d812      	bhi.n	8003152 <ff_convert+0x32>
 800312c:	4b0a      	ldr	r3, [pc, #40]	; (8003158 <ff_convert+0x38>)
 800312e:	3880      	subs	r0, #128	; 0x80
 8003130:	f833 0010 	ldrh.w	r0, [r3, r0, lsl #1]
 8003134:	bd10      	pop	{r4, pc}
 8003136:	4a08      	ldr	r2, [pc, #32]	; (8003158 <ff_convert+0x38>)
 8003138:	f832 4b02 	ldrh.w	r4, [r2], #2
 800313c:	b28b      	uxth	r3, r1
 800313e:	4284      	cmp	r4, r0
 8003140:	d003      	beq.n	800314a <ff_convert+0x2a>
 8003142:	3101      	adds	r1, #1
 8003144:	2980      	cmp	r1, #128	; 0x80
 8003146:	d1f7      	bne.n	8003138 <ff_convert+0x18>
 8003148:	460b      	mov	r3, r1
 800314a:	f103 0080 	add.w	r0, r3, #128	; 0x80
 800314e:	b2c0      	uxtb	r0, r0
 8003150:	e7f0      	b.n	8003134 <ff_convert+0x14>
 8003152:	2000      	movs	r0, #0
 8003154:	e7ee      	b.n	8003134 <ff_convert+0x14>
 8003156:	bf00      	nop
 8003158:	080033a2 	.word	0x080033a2

0800315c <ff_wtoupper>:
 800315c:	2300      	movs	r3, #0
 800315e:	4906      	ldr	r1, [pc, #24]	; (8003178 <ff_wtoupper+0x1c>)
 8003160:	f831 2b02 	ldrh.w	r2, [r1], #2
 8003164:	b122      	cbz	r2, 8003170 <ff_wtoupper+0x14>
 8003166:	4282      	cmp	r2, r0
 8003168:	d103      	bne.n	8003172 <ff_wtoupper+0x16>
 800316a:	4a04      	ldr	r2, [pc, #16]	; (800317c <ff_wtoupper+0x20>)
 800316c:	f832 0013 	ldrh.w	r0, [r2, r3, lsl #1]
 8003170:	4770      	bx	lr
 8003172:	3301      	adds	r3, #1
 8003174:	e7f4      	b.n	8003160 <ff_wtoupper+0x4>
 8003176:	bf00      	nop
 8003178:	080034a2 	.word	0x080034a2
 800317c:	08003682 	.word	0x08003682

08003180 <__libc_init_array>:
 8003180:	b570      	push	{r4, r5, r6, lr}
 8003182:	2600      	movs	r6, #0
 8003184:	4d0c      	ldr	r5, [pc, #48]	; (80031b8 <__libc_init_array+0x38>)
 8003186:	4c0d      	ldr	r4, [pc, #52]	; (80031bc <__libc_init_array+0x3c>)
 8003188:	1b64      	subs	r4, r4, r5
 800318a:	10a4      	asrs	r4, r4, #2
 800318c:	42a6      	cmp	r6, r4
 800318e:	d109      	bne.n	80031a4 <__libc_init_array+0x24>
 8003190:	f000 f822 	bl	80031d8 <_init>
 8003194:	2600      	movs	r6, #0
 8003196:	4d0a      	ldr	r5, [pc, #40]	; (80031c0 <__libc_init_array+0x40>)
 8003198:	4c0a      	ldr	r4, [pc, #40]	; (80031c4 <__libc_init_array+0x44>)
 800319a:	1b64      	subs	r4, r4, r5
 800319c:	10a4      	asrs	r4, r4, #2
 800319e:	42a6      	cmp	r6, r4
 80031a0:	d105      	bne.n	80031ae <__libc_init_array+0x2e>
 80031a2:	bd70      	pop	{r4, r5, r6, pc}
 80031a4:	f855 3b04 	ldr.w	r3, [r5], #4
 80031a8:	4798      	blx	r3
 80031aa:	3601      	adds	r6, #1
 80031ac:	e7ee      	b.n	800318c <__libc_init_array+0xc>
 80031ae:	f855 3b04 	ldr.w	r3, [r5], #4
 80031b2:	4798      	blx	r3
 80031b4:	3601      	adds	r6, #1
 80031b6:	e7f2      	b.n	800319e <__libc_init_array+0x1e>
 80031b8:	08003864 	.word	0x08003864
 80031bc:	08003864 	.word	0x08003864
 80031c0:	08003864 	.word	0x08003864
 80031c4:	08003868 	.word	0x08003868

080031c8 <memset>:
 80031c8:	4603      	mov	r3, r0
 80031ca:	4402      	add	r2, r0
 80031cc:	4293      	cmp	r3, r2
 80031ce:	d100      	bne.n	80031d2 <memset+0xa>
 80031d0:	4770      	bx	lr
 80031d2:	f803 1b01 	strb.w	r1, [r3], #1
 80031d6:	e7f9      	b.n	80031cc <memset+0x4>

080031d8 <_init>:
 80031d8:	b5f8      	push	{r3, r4, r5, r6, r7, lr}
 80031da:	bf00      	nop
 80031dc:	bcf8      	pop	{r3, r4, r5, r6, r7}
 80031de:	bc08      	pop	{r3}
 80031e0:	469e      	mov	lr, r3
 80031e2:	4770      	bx	lr

080031e4 <_fini>:
 80031e4:	b5f8      	push	{r3, r4, r5, r6, r7, lr}
 80031e6:	bf00      	nop
 80031e8:	bcf8      	pop	{r3, r4, r5, r6, r7}
 80031ea:	bc08      	pop	{r3}
 80031ec:	469e      	mov	lr, r3
 80031ee:	4770      	bx	lr
